(dp0
S'METTS MARK'
p1
(dp2
S'to_messages'
p3
I807
sS'deferral_payments'
p4
S'NaN'
p5
sS'scaled_total_stock'
p6
cnumpy.core.multiarray
scalar
p7
(cnumpy
dtype
p8
(S'f8'
p9
I0
I1
tp10
Rp11
(I3
S'<'
p12
NNNI-1
I-1
I0
tp13
bS'i\xaa\xf9\xb4\xb06\x8a?'
p14
tp15
Rp16
sS'expenses'
p17
I94299
sS'poi'
p18
I00
sS'deferred_income'
p19
g5
sS'email_address'
p20
S'mark.metts@enron.com'
p21
sS'long_term_incentive'
p22
g5
sS'stock_salary_ratio'
p23
F1.5994565157960348
sS'restricted_stock_deferred'
p24
g5
sS'scaled_exercised_stock'
p25
I0
sS'shared_receipt_with_poi'
p26
I702
sS'loan_advances'
p27
g5
sS'from_messages'
p28
I29
sS'other'
p29
I1740
sS'director_fees'
p30
g5
sS'bonus'
p31
I600000
sS'total_stock_value'
p32
I585062
sS'from_poi_to_this_person'
p33
I38
sS'scaled_bonus'
p34
g7
(g11
S'\xa9\x8f\xbb\xf3\x15\x1c\xb1?'
p35
tp36
Rp37
sS'scaled_deferred_income'
p38
I0
sS'from_this_person_to_poi'
p39
I1
sS'restricted_stock'
p40
I585062
sS'salary'
p41
I365788
sS'scaled_salary'
p42
g7
(g11
S'\xac~V\xacT\x0c\xd5?'
p43
tp44
Rp45
sS'total_payments'
p46
I1061827
sS'scaled_longterm_incentive'
p47
I0
sS'exercised_stock_options'
p48
g5
ssS'BAXTER JOHN C'
p49
(dp50
g3
g5
sg4
I1295738
sg6
g7
(g11
S'\xcf\xb4\x0c\xd4@\xc7\xcb?'
p51
tp52
Rp53
sg17
I11200
sg18
I00
sg19
I-1386055
sg20
g5
sg22
I1586055
sg23
F39.77228923781926
sg24
g5
sg25
g7
(g11
S'\xe4\x87\r\x0b\xa5\xe2\xc8?'
p54
tp55
Rp56
sg26
g5
sg27
g5
sg28
g5
sg29
I2660303
sg30
g5
sg31
I1200000
sg32
I10623258
sg33
g5
sg34
g7
(g11
S'\xa8\n\xb71V=\xc2?'
p57
tp58
Rp59
sg38
g7
(g11
S'\x10w\xf5\xb1\x13Y\xe3?'
p60
tp61
Rp62
sg39
g5
sg40
I3942714
sg41
I267102
sg42
g7
(g11
S'q\x95\xa1\x92m\xb9\xce?'
p63
tp64
Rp65
sg46
I5634343
sg47
g7
(g11
S'\xe7u\xdf\xbc\xbb\x1f\xd3?'
p66
tp67
Rp68
sg48
I6680544
ssS'ELLIOTT STEVEN'
p69
(dp70
g3
g5
sg4
g5
sg6
g7
(g11
S'\xc7\xd96\xf8\xaf\x81\xc1?'
p71
tp72
Rp73
sg17
I78552
sg18
I00
sg19
I-400729
sg20
S'steven.elliott@enron.com'
p74
sg22
g5
sg23
F39.07041025851024
sg24
g5
sg25
g7
(g11
S'\x92\xb8\xc13\xa66\xc2?'
p75
tp76
Rp77
sg26
g5
sg27
g5
sg28
g5
sg29
I12961
sg30
g5
sg31
I350000
sg32
I6678735
sg33
g5
sg34
g7
(g11
S'\xf1\xaf\xb7\xdf\x03\x14\xa2?'
p78
tp79
Rp80
sg38
g7
(g11
S'\xcf\xdd\x86\xcb\xf6X\xec?'
p81
tp82
Rp83
sg39
g5
sg40
I1788391
sg41
I170941
sg42
g7
(g11
S'd\x8b\x80\x93\xae\xa4\xc3?'
p84
tp85
Rp86
sg46
I211725
sg47
I0
sg48
I4890344
ssS'CORDES WILLIAM R'
p87
(dp88
g3
I764
sg4
g5
sg6
g7
(g11
S'I\xc0\xff\xf6\xe4\x8b\x96?'
p89
tp90
Rp91
sg17
g5
sg18
I00
sg19
g5
sg20
S'bill.cordes@enron.com'
p92
sg22
g5
sg23
I0
sg24
g5
sg25
g7
(g11
S'\x89`=sDV\x93?'
p93
tp94
Rp95
sg26
I58
sg27
g5
sg28
I12
sg29
g5
sg30
g5
sg31
g5
sg32
I1038185
sg33
I10
sg34
I0
sg38
I0
sg39
I0
sg40
I386335
sg41
g5
sg42
I0
sg46
g5
sg47
I0
sg48
I651850
ssS'HANNON KEVIN P'
p96
(dp97
g3
I1045
sg4
g5
sg6
g7
(g11
S'\xe4\xb8?u\xea\xc1\xc0?'
p98
tp99
Rp100
sg17
I34039
sg18
I01
sg19
I-3117011
sg20
S'kevin.hannon@enron.com'
p101
sg22
I1617011
sg23
F26.269004862449805
sg24
g5
sg25
g7
(g11
S';\xee\xf8\xfb\x90\xa0\xc4?'
p102
tp103
Rp104
sg26
I1035
sg27
g5
sg28
I32
sg29
I11350
sg30
g5
sg31
I1500000
sg32
I6391065
sg33
I32
sg34
g7
(g11
S'\x11\xac\xa3\xcd\xfb\x14\xc7?'
p105
tp106
Rp107
sg38
g7
(g11
S' \x7f\xdb6\x13N\xbc?'
p108
tp109
Rp110
sg39
I21
sg40
I853064
sg41
I243293
sg42
g7
(g11
S'.\xc2\xb58\x10\xfb\xcb?'
p111
tp112
Rp113
sg46
I288682
sg47
g7
(g11
S'\xfdu)\xa6\xa5\x83\xd3?'
p114
tp115
Rp116
sg48
I5538001
ssS'MORDAUNT KRISTINA M'
p117
(dp118
g3
g5
sg4
g5
sg6
g7
(g11
S'\xd7\xf5\xd3@\xa0\x0cu?'
p119
tp120
Rp121
sg17
I35018
sg18
I00
sg19
g5
sg20
S'kristina.mordaunt@enron.com'
p122
sg22
g5
sg23
F0.7806644127700838
sg24
g5
sg25
I0
sg26
g5
sg27
g5
sg28
g5
sg29
I1411
sg30
g5
sg31
I325000
sg32
I208510
sg33
g5
sg34
g7
(g11
S'\xce$\xbe\xab\xccv\xa0?'
p123
tp124
Rp125
sg38
I0
sg39
g5
sg40
I208510
sg41
I267093
sg42
g7
(g11
S'\xf0\x1a\xd8\x9a)\xb9\xce?'
p126
tp127
Rp128
sg46
I628522
sg47
I0
sg48
g5
ssS'MEYER ROCKFORD G'
p129
(dp130
g3
I232
sg4
I1848227
sg6
g7
(g11
S'E\xdet\x9c\xea\xd4\x94?'
p131
tp132
Rp133
sg17
g5
sg18
I00
sg19
g5
sg20
S'rockford.meyer@enron.com'
p134
sg22
g5
sg23
I0
sg24
g5
sg25
g7
(g11
S'\xc7s*\x92\x1b;\x8d?'
p135
tp136
Rp137
sg26
I22
sg27
g5
sg28
I28
sg29
g5
sg30
g5
sg31
g5
sg32
I955873
sg33
I0
sg34
I0
sg38
I0
sg39
I0
sg40
I462384
sg41
g5
sg42
I0
sg46
I1848227
sg47
I0
sg48
I493489
ssS'MCMAHON JEFFREY'
p138
(dp139
g3
I2355
sg4
g5
sg6
g7
(g11
S'\xadP\xcd\x08\xa9\xc7\xa1?'
p140
tp141
Rp142
sg17
I137108
sg18
I00
sg19
g5
sg20
S'jeffrey.mcmahon@enron.com'
p143
sg22
I694862
sg23
F4.488767654299659
sg24
g5
sg25
g7
(g11
S'\xae\x9e\xd9\xec\xe3h\xa0?'
p144
tp145
Rp146
sg26
I2228
sg27
g5
sg28
I48
sg29
I297353
sg30
g5
sg31
I2600000
sg32
I1662855
sg33
I58
sg34
g7
(g11
S'JS\xae\x84-k\xd4?'
p147
tp148
Rp149
sg38
I0
sg39
I26
sg40
I558801
sg41
I370448
sg42
g7
(g11
S'\xec(\xde\xcf\x10Q\xd5?'
p150
tp151
Rp152
sg46
I4099771
sg47
g7
(g11
S'f\x87\xfa\xa1B\x8d\xbf?'
p153
tp154
Rp155
sg48
I1104054
ssS'HORTON STANLEY C'
p156
(dp157
g3
I2350
sg4
I3131860
sg6
g7
(g11
S'=\xe3C\x19\xf2\x02\xc3?'
p158
tp159
Rp160
sg17
g5
sg18
I00
sg19
g5
sg20
S'stanley.horton@enron.com'
p161
sg22
g5
sg23
I0
sg24
g5
sg25
g7
(g11
S'\xb7\xd7\x1du+h\xc3?'
p162
tp163
Rp164
sg26
I1074
sg27
g5
sg28
I1073
sg29
g5
sg30
g5
sg31
g5
sg32
I7256648
sg33
I44
sg34
I0
sg38
I0
sg39
I15
sg40
I2046079
sg41
g5
sg42
I0
sg46
I3131860
sg47
I0
sg48
I5210569
ssS'PIPER GREGORY F'
p165
(dp166
g3
I1238
sg4
I1130036
sg6
g7
(g11
S'A\xb7\x00.\xd3A\x93?'
p167
tp168
Rp169
sg17
I43057
sg18
I00
sg19
I-33333
sg20
S'greg.piper@enron.com'
p170
sg22
g5
sg23
F4.466413991506461
sg24
I-409554
sg25
g7
(g11
S'\x94\x94\xbf\x80\xde%\x9a?'
p171
tp172
Rp173
sg26
I742
sg27
g5
sg28
I222
sg29
I778
sg30
g5
sg31
I400000
sg32
I880290
sg33
I61
sg34
g7
(g11
S'7\xc6\xaaGrN\xa5?'
p174
tp175
Rp176
sg38
g7
(g11
S'\xb6\xf4\xb01\x02\xb4\xef?'
p177
tp178
Rp179
sg39
I48
sg40
I409554
sg41
I197091
sg42
g7
(g11
S'i\x10\\#\x1b\xa8\xc6?'
p180
tp181
Rp182
sg46
I1737629
sg47
I0
sg48
I880290
ssS'HUMPHREY GENE E'
p183
(dp184
g3
I128
sg4
I2964506
sg6
g7
(g11
S'\xf8>\xd1H\xb0<\xa8?'
p185
tp186
Rp187
sg17
I4994
sg18
I00
sg19
g5
sg20
S'gene.humphrey@enron.com'
p188
sg22
g5
sg23
F17.462501147455708
sg24
g5
sg25
g7
(g11
S'\x1a\xaf\xca:\x9f\xfd\xb0?'
p189
tp190
Rp191
sg26
I119
sg27
g5
sg28
I17
sg29
g5
sg30
g5
sg31
g5
sg32
I2282768
sg33
I10
sg34
I0
sg38
I0
sg39
I17
sg40
g5
sg41
I130724
sg42
g7
(g11
S'\xa7&\x0cQ\x90\x04\xbe?'
p192
tp193
Rp194
sg46
I3100224
sg47
I0
sg48
I2282768
ssS'UMANOFF ADAM S'
p195
(dp196
g3
I111
sg4
g5
sg6
I0
sg17
I53122
sg18
I00
sg19
g5
sg20
S'adam.umanoff@enron.com'
p197
sg22
g5
sg23
I0
sg24
g5
sg25
I0
sg26
I41
sg27
g5
sg28
I18
sg29
g5
sg30
g5
sg31
I788750
sg32
g5
sg33
I12
sg34
g7
(g11
S'\x1a0#\x8b\xf93\xb7?'
p198
tp199
Rp200
sg38
I0
sg39
I0
sg40
g5
sg41
I288589
sg42
g7
(g11
S';\xf9\xbf\x99\xa5\x99\xd0?'
p201
tp202
Rp203
sg46
I1130461
sg47
I0
sg48
g5
ssS'BLACHMAN JEREMY M'
p204
(dp205
g3
I2475
sg4
g5
sg6
g7
(g11
S"'\xc0\xec\xc2\xd0\xcc\x94?"
p206
tp207
Rp208
sg17
I84208
sg18
I00
sg19
g5
sg20
S'jeremy.blachman@enron.com'
p209
sg22
I831809
sg23
F3.839747974218052
sg24
g5
sg25
g7
(g11
S'z5\xa9TJ\xb8\x96?'
p210
tp211
Rp212
sg26
I2326
sg27
g5
sg28
I14
sg29
I272
sg30
g5
sg31
I850000
sg32
I954354
sg33
I25
sg34
g7
(g11
S'YG\x9b\xf7).\xb9?'
p213
tp214
Rp215
sg38
I0
sg39
I2
sg40
I189041
sg41
I248546
sg42
g7
(g11
S'\x7feg\xd4\x06\x96\xcc?'
p216
tp217
Rp218
sg46
I2014835
sg47
g7
(g11
S'\x1a\xfbG\xcd\xa6:\xc3?'
p219
tp220
Rp221
sg48
I765313
ssS'SUNDE MARTIN'
p222
(dp223
g3
I2647
sg4
g5
sg6
g7
(g11
S'\xa2\xd8g8\x1f\xf5\x8e?'
p224
tp225
Rp226
sg17
g5
sg18
I00
sg19
g5
sg20
S'marty.sunde@enron.com'
p227
sg22
I476451
sg23
F2.71440000621393
sg24
g5
sg25
I0
sg26
I2565
sg27
g5
sg28
I38
sg29
I111122
sg30
g5
sg31
I700000
sg32
I698920
sg33
I37
sg34
g7
(g11
S'\xef\xa5\xae[\x84V\xb4?'
p228
tp229
Rp230
sg38
I0
sg39
I13
sg40
I698920
sg41
I257486
sg42
g7
(g11
S'Jh\xd9\xa0\xc1\x9d\xcd?'
p231
tp232
Rp233
sg46
I1545059
sg47
g7
(g11
S'A\xd9\x01\xb5{\x89\xb4?'
p234
tp235
Rp236
sg48
g5
ssS'GIBBS DANA R'
p237
(dp238
g3
I169
sg4
I504610
sg6
g7
(g11
S'!r\xf6\x01\xb7\x90\xa7?'
p239
tp240
Rp241
sg17
g5
sg18
I00
sg19
g5
sg20
S'dana.gibbs@enron.com'
p242
sg22
I461912
sg23
I0
sg24
g5
sg25
g7
(g11
S'\xf2\x02\x94\x15\x8f\x82\xb0?'
p243
tp244
Rp245
sg26
I23
sg27
g5
sg28
I12
sg29
g5
sg30
g5
sg31
g5
sg32
I2218275
sg33
I0
sg34
I0
sg38
I0
sg39
I0
sg40
g5
sg41
g5
sg42
I0
sg46
I966522
sg47
g7
(g11
S'\xd1\xeb\x95W\xc7\xcd\xb3?'
p246
tp247
Rp248
sg48
I2218275
ssS'LOWRY CHARLES P'
p249
(dp250
g3
g5
sg4
g5
sg6
g7
(g11
S'\xf7\x982\xddPX\x81?'
p251
tp252
Rp253
sg17
g5
sg18
I00
sg19
g5
sg20
g5
sg22
g5
sg23
I0
sg24
I-153686
sg25
g7
(g11
S'\xee\xb3\xac\x01\xac\xff\x85?'
p254
tp255
Rp256
sg26
g5
sg27
g5
sg28
g5
sg29
g5
sg30
g5
sg31
g5
sg32
I372205
sg33
g5
sg34
I0
sg38
I0
sg39
g5
sg40
I153686
sg41
g5
sg42
I0
sg46
g5
sg47
I0
sg48
I372205
ssS'COLWELL WESLEY'
p257
(dp258
g3
I1758
sg4
I27610
sg6
g7
(g11
S'\x05\xa9\xfc\xe8\xe3\xed\x8e?'
p259
tp260
Rp261
sg17
I16514
sg18
I01
sg19
I-144062
sg20
S'wes.colwell@enron.com'
p262
sg22
g5
sg23
F2.4198972766529656
sg24
g5
sg25
I0
sg26
I1132
sg27
g5
sg28
I40
sg29
I101740
sg30
g5
sg31
I1200000
sg32
I698242
sg33
I240
sg34
g7
(g11
S'\xa8\n\xb71V=\xc2?'
p263
tp264
Rp265
sg38
g7
(g11
S'\xdc\x91\xf7-\x1a\xb1\xee?'
p266
tp267
Rp268
sg39
I11
sg40
I698242
sg41
I288542
sg42
g7
(g11
S'w\x00\xf9 \xf4\x98\xd0?'
p269
tp270
Rp271
sg46
I1490344
sg47
I0
sg48
g5
ssS'MULLER MARK S'
p272
(dp273
g3
I136
sg4
I842924
sg6
g7
(g11
S'Pp\xabXWo\x9e?'
p274
tp275
Rp276
sg17
g5
sg18
I00
sg19
I-719000
sg20
S's..muller@enron.com'
p277
sg22
I1725545
sg23
F5.630142974083464
sg24
g5
sg25
g7
(g11
S'=2\x8d\xa4qe\x9f?'
p278
tp279
Rp280
sg26
I114
sg27
g5
sg28
I16
sg29
I947
sg30
g5
sg31
I1100000
sg32
I1416848
sg33
I12
sg34
g7
(g11
S'\x84\x7f\xbd\xfd\x1e\xa0\xc0?'
p281
tp282
Rp283
sg38
g7
(g11
S'\x10\x12`\x92\xc8p\xe9?'
p284
tp285
Rp286
sg39
I0
sg40
I360528
sg41
I251654
sg42
g7
(g11
S')Q\xdbj\xb6\xf1\xcc?'
p287
tp288
Rp289
sg46
I3202070
sg47
g7
(g11
S'#\x82<\xad\xf3\xe1\xd4?'
p290
tp291
Rp292
sg48
I1056320
ssS'JACKSON CHARLENE R'
p293
(dp294
g3
I258
sg4
g5
sg6
g7
(g11
S'\xb9\xfa\x0eh\x91\t\x90?'
p295
tp296
Rp297
sg17
I10181
sg18
I00
sg19
g5
sg20
S'charlene.jackson@enron.com'
p298
sg22
g5
sg23
F2.515040303855724
sg24
g5
sg25
g7
(g11
S'\x95<N\xf3\xc9\xadu?'
p299
tp300
Rp301
sg26
I117
sg27
g5
sg28
I56
sg29
I2435
sg30
g5
sg31
I250000
sg32
I725735
sg33
I25
sg34
g7
(g11
S'\xc8\x06\xa3\x1fN>\x97?'
p302
tp303
Rp304
sg38
I0
sg39
I19
sg40
I540672
sg41
I288558
sg42
g7
(g11
S'y4s\x8b0\x99\xd0?'
p305
tp306
Rp307
sg46
I551174
sg47
I0
sg48
I185063
ssS'WESTFAHL RICHARD K'
p308
(dp309
g3
g5
sg4
g5
sg6
g7
(g11
S'\xfc\xaa\x0b\x10\x0b\xe0\x81?'
p310
tp311
Rp312
sg17
I51870
sg18
I00
sg19
I-10800
sg20
S'dick.westfahl@enron.com'
p313
sg22
I256191
sg23
F6.038685993975903
sg24
g5
sg25
I0
sg26
g5
sg27
g5
sg28
g5
sg29
I401130
sg30
g5
sg31
g5
sg32
I384930
sg33
g5
sg34
I0
sg38
g7
(g11
S'(sw\xf7\xb1\xe8\xef?'
p314
tp315
Rp316
sg39
g5
sg40
I384930
sg41
I63744
sg42
g7
(g11
S'\xac\x15q;\x7f)\xad?'
p317
tp318
Rp319
sg46
I762135
sg47
g7
(g11
S'\x81v\x13m\xab\xdb\xa2?'
p320
tp321
Rp322
sg48
g5
ssS'WALTERS GARETH W'
p323
(dp324
g3
g5
sg4
I53625
sg6
g7
(g11
S'3\xf7Aa\xffa\x96?'
p325
tp326
Rp327
sg17
I33785
sg18
I00
sg19
g5
sg20
g5
sg22
g5
sg23
I0
sg24
g5
sg25
g7
(g11
S'\t\x8fNU\x10\x9f\x9e?'
p328
tp329
Rp330
sg26
g5
sg27
g5
sg28
g5
sg29
g5
sg30
g5
sg31
g5
sg32
I1030329
sg33
g5
sg34
I0
sg38
I0
sg39
g5
sg40
g5
sg41
g5
sg42
I0
sg46
I87410
sg47
I0
sg48
I1030329
ssS'WALLS JR ROBERT H'
p331
(dp332
g3
I671
sg4
g5
sg6
g7
(g11
S'\x1a\xa6\xa5\x1f\xc5\xf3\xbe?'
p333
tp334
Rp335
sg17
I50936
sg18
I00
sg19
g5
sg20
S'rob.walls@enron.com'
p336
sg22
I540751
sg23
F16.5195902445035
sg24
g5
sg25
g7
(g11
S'\x02\x1a\xd0\xf0\xd1/\xc0?'
p337
tp338
Rp339
sg26
I215
sg27
g5
sg28
I146
sg29
I2
sg30
g5
sg31
I850000
sg32
I5898997
sg33
I17
sg34
g7
(g11
S'YG\x9b\xf7).\xb9?'
p340
tp341
Rp342
sg38
I0
sg39
I0
sg40
I1552453
sg41
I357091
sg42
g7
(g11
S'\x18s=\xd7\x0c\x8c\xd4?'
p343
tp344
Rp345
sg46
I1798780
sg47
g7
(g11
S'\xd2\x8a$\x7f\x9f\xc7\xb7?'
p346
tp347
Rp348
sg48
I4346544
ssS'KITCHEN LOUISE'
p349
(dp350
g3
I8305
sg4
g5
sg6
g7
(g11
S'\x12\x84\x7f!=\xa2\x88?'
p351
tp352
Rp353
sg17
I5774
sg18
I00
sg19
g5
sg20
S'louise.kitchen@enron.com'
p354
sg22
g5
sg23
F2.0156902763758002
sg24
g5
sg25
g7
(g11
S'\xbd\x1a\x99\xfd\xee\x8bb?'
p355
tp356
Rp357
sg26
I3669
sg27
g5
sg28
I1728
sg29
I93925
sg30
g5
sg31
I3100000
sg32
I547143
sg33
I251
sg34
g7
(g11
S'"/\x9e\x867t\xd8?'
p358
tp359
Rp360
sg38
I0
sg39
I194
sg40
I466101
sg41
I271442
sg42
g7
(g11
S'\xc5\xc9\x986u9\xcf?'
p361
tp362
Rp363
sg46
I3471141
sg47
I0
sg48
I81042
ssS'CHAN RONNIE'
p364
(dp365
g3
g5
sg4
g5
sg6
I0
sg17
g5
sg18
I00
sg19
I-98784
sg20
g5
sg22
g5
sg23
I0
sg24
I-32460
sg25
I0
sg26
g5
sg27
g5
sg28
g5
sg29
g5
sg30
I98784
sg31
g5
sg32
g5
sg33
g5
sg34
I0
sg38
g7
(g11
S'\xe2\xf1\x93\x9f\xf8\x1a\xef?'
p366
tp367
Rp368
sg39
g5
sg40
I32460
sg41
g5
sg42
I0
sg46
g5
sg47
I0
sg48
g5
ssS'BELFER ROBERT'
p369
(dp370
g3
g5
sg4
I-102500
sg6
g7
(g11
S'\x00\x00\x00\x00\x00\x00\x00\x00'
p371
tp372
Rp373
sg17
g5
sg18
I00
sg19
g5
sg20
g5
sg22
g5
sg23
I0
sg24
I44093
sg25
g7
(g11
S'\x00\x00\x00\x00\x00\x00\x00\x00'
p374
tp375
Rp376
sg26
g5
sg27
g5
sg28
g5
sg29
g5
sg30
I3285
sg31
g5
sg32
I-44093
sg33
g5
sg34
I0
sg38
I0
sg39
g5
sg40
g5
sg41
g5
sg42
I0
sg46
I102500
sg47
I0
sg48
I3285
ssS'SHANKMAN JEFFREY A'
p377
(dp378
g3
I3221
sg4
g5
sg6
g7
(g11
S'3\xdea>\xc2\n\xa6?'
p379
tp380
Rp381
sg17
I178979
sg18
I00
sg19
g5
sg20
S'jeffrey.shankman@enron.com'
p382
sg22
I554422
sg23
F6.813439216073132
sg24
g5
sg25
g7
(g11
S'F\xdc\xc8U6r\xa5?'
p383
tp384
Rp385
sg26
I1730
sg27
g5
sg28
I2681
sg29
I1191
sg30
g5
sg31
I2000000
sg32
I2072035
sg33
I94
sg34
g7
(g11
S"\xc1c\x83\xd1\x0f'\xcf?"
p386
tp387
Rp388
sg38
I0
sg39
I83
sg40
I630137
sg41
I304110
sg42
g7
(g11
S'\xa4\xa8p\xd3\x94~\xd1?'
p389
tp390
Rp391
sg46
I3038702
sg47
g7
(g11
S'[\xe4L\x10\x1fx\xb8?'
p392
tp393
Rp394
sg48
I1441898
ssS'BERGSIEKER RICHARD P'
p395
(dp396
g3
I383
sg4
g5
sg6
g7
(g11
S'\xc2\xee@\xba\xfbM\x8d?'
p397
tp398
Rp399
sg17
I59175
sg18
I00
sg19
I-485813
sg20
S'rick.bergsieker@enron.com'
p400
sg22
I180250
sg23
F3.5080991049477976
sg24
g5
sg25
I0
sg26
I233
sg27
g5
sg28
I59
sg29
I427316
sg30
g5
sg31
I250000
sg32
I659249
sg33
I4
sg34
g7
(g11
S'\xc8\x06\xa3\x1fN>\x97?'
p401
tp402
Rp403
sg38
g7
(g11
S'\xdc/lT\x05\x92\xeb?'
p404
tp405
Rp406
sg39
I0
sg40
I659249
sg41
I187922
sg42
g7
(g11
S'\xfe\xfc\xff\xee\x9e\x99\xc5?'
p407
tp408
Rp409
sg46
I618850
sg47
g7
(g11
S'\x0ebA\x91\x9ee\x96?'
p410
tp411
Rp412
sg48
g5
ssS'URQUHART JOHN A'
p413
(dp414
g3
g5
sg4
g5
sg6
I0
sg17
I228656
sg18
I00
sg19
I-36666
sg20
g5
sg22
g5
sg23
I0
sg24
g5
sg25
I0
sg26
g5
sg27
g5
sg28
g5
sg29
g5
sg30
I36666
sg31
g5
sg32
g5
sg33
g5
sg34
I0
sg38
g7
(g11
S'vN\xa9!7\xac\xef?'
p415
tp416
Rp417
sg39
g5
sg40
g5
sg41
g5
sg42
I0
sg46
I228656
sg47
I0
sg48
g5
ssS'BIBI PHILIPPE A'
p418
(dp419
g3
I1607
sg4
g5
sg6
g7
(g11
S'\x9f\xa5\xed\x9e3\xaa\xa3?'
p420
tp421
Rp422
sg17
I38559
sg18
I00
sg19
g5
sg20
S'philippe.bibi@enron.com'
p423
sg22
I369721
sg23
F8.63108718548859
sg24
g5
sg25
g7
(g11
S'a\xb4\xc4\x99-\xcd\xa5?'
p424
tp425
Rp426
sg26
I1336
sg27
g5
sg28
I40
sg29
I425688
sg30
g5
sg31
I1000000
sg32
I1843816
sg33
I23
sg34
g7
(g11
S'\xc2\xe8\x87\x93\xcf\x05\xbe?'
p427
tp428
Rp429
sg38
I0
sg39
I8
sg40
I378082
sg41
I213625
sg42
g7
(g11
S'Fho\xc1\xdb\x8f\xc8?'
p430
tp431
Rp432
sg46
I2047593
sg47
g7
(g11
S'\xdc\x81\xad\xdf\x1bO\xae?'
p433
tp434
Rp435
sg48
I1465734
ssS'RIEKER PAULA H'
p436
(dp437
g3
I1328
sg4
I214678
sg6
g7
(g11
S'F1\x9f\xd3ar\xa4?'
p438
tp439
Rp440
sg17
I33271
sg18
I01
sg19
I-100000
sg20
S'paula.rieker@enron.com'
p441
sg22
g5
sg23
F7.700157704022055
sg24
g5
sg25
g7
(g11
S'\xf5\x08Ah\x0fT\xa8?'
p442
tp443
Rp444
sg26
I1258
sg27
g5
sg28
I82
sg29
I1950
sg30
g5
sg31
I700000
sg32
I1918887
sg33
I35
sg34
g7
(g11
S'\xef\xa5\xae[\x84V\xb4?'
p445
tp446
Rp447
sg38
g7
(g11
S'k\xd1p\xc0 \x18\xef?'
p448
tp449
Rp450
sg39
I48
sg40
I283649
sg41
I249201
sg42
g7
(g11
S'Y\xc7<bY\xa9\xcc?'
p451
tp452
Rp453
sg46
I1099100
sg47
I0
sg48
I1635238
ssS'BECK SALLY W'
p454
(dp455
g3
I7315
sg4
g5
sg6
g7
(g11
S'\x90E\xc7\xfb!Zl?'
p456
tp457
Rp458
sg17
I37172
sg18
I00
sg19
g5
sg20
S'sally.beck@enron.com'
p459
sg22
g5
sg23
F0.544793152639087
sg24
g5
sg25
I0
sg26
I2639
sg27
g5
sg28
I4343
sg29
I566
sg30
g5
sg31
I700000
sg32
I126027
sg33
I144
sg34
g7
(g11
S'\xef\xa5\xae[\x84V\xb4?'
p460
tp461
Rp462
sg38
I0
sg39
I386
sg40
I126027
sg41
I231330
sg42
g7
(g11
S'D<"\xc1\'\x9a\xca?'
p463
tp464
Rp465
sg46
I969068
sg47
I0
sg48
g5
ssS'HAUG DAVID L'
p466
(dp467
g3
I573
sg4
g5
sg6
g7
(g11
S'\'/"\xc1\x1c\x8e\xa7?'
p468
tp469
Rp470
sg17
I475
sg18
I00
sg19
g5
sg20
S'david.haug@enron.com'
p471
sg22
g5
sg23
I0
sg24
g5
sg25
I0
sg26
I471
sg27
g5
sg28
I19
sg29
g5
sg30
g5
sg31
g5
sg32
I2217299
sg33
I4
sg34
I0
sg38
I0
sg39
I7
sg40
I2217299
sg41
g5
sg42
I0
sg46
I475
sg47
I0
sg48
g5
ssS'ECHOLS JOHN B'
p472
(dp473
g3
g5
sg4
g5
sg6
g7
(g11
S'\xd6@\x9b\xeb\xee\xef\x95?'
p474
tp475
Rp476
sg17
I21530
sg18
I00
sg19
g5
sg20
S'john.echols@enron.com'
p477
sg22
I2234774
sg23
F5.536179319048534
sg24
g5
sg25
g7
(g11
S'#\xf4Y\x8b}\xd5\x91?'
p478
tp479
Rp480
sg26
g5
sg27
g5
sg28
g5
sg29
I53775
sg30
g5
sg31
I200000
sg32
I1008941
sg33
g5
sg34
g7
(g11
S':\xda\xbcOq\xc9\x90?'
p481
tp482
Rp483
sg38
I0
sg39
g5
sg40
I407503
sg41
I182245
sg42
g7
(g11
S's\x95\x01H&\xf2\xc4?'
p484
tp485
Rp486
sg46
I2692324
sg47
g7
(g11
S'\x0fi\x82\xa1\x8aM\xdb?'
p487
tp488
Rp489
sg48
I601438
ssS'MENDELSOHN JOHN'
p490
(dp491
g3
g5
sg4
g5
sg6
I0
sg17
I148
sg18
I00
sg19
I-103750
sg20
g5
sg22
g5
sg23
I0
sg24
g5
sg25
I0
sg26
g5
sg27
g5
sg28
g5
sg29
g5
sg30
I103750
sg31
g5
sg32
g5
sg33
g5
sg34
I0
sg38
g7
(g11
S'1\x8b\xf1\x14\\\x0f\xef?'
p492
tp493
Rp494
sg39
g5
sg40
g5
sg41
g5
sg42
I0
sg46
I148
sg47
I0
sg48
g5
ssS'HICKERSON GARY J'
p495
(dp496
g3
I1320
sg4
g5
sg6
g7
(g11
S'D\xe8\xa8\xe9\x1e7\x84?'
p497
tp498
Rp499
sg17
I98849
sg18
I00
sg19
g5
sg20
S'gary.hickerson@enron.com'
p500
sg22
I69223
sg23
F2.08272423366763
sg24
g5
sg25
I0
sg26
I900
sg27
g5
sg28
I27
sg29
I1936
sg30
g5
sg31
I1700000
sg32
I441096
sg33
I40
sg34
g7
(g11
S'X\xc2\x965jO\xca?'
p501
tp502
Rp503
sg38
I0
sg39
I1
sg40
I441096
sg41
I211788
sg42
g7
(g11
S'\xca\x82\x92\xbf\xaaY\xc8?'
p504
tp505
Rp506
sg46
I2081796
sg47
g7
(g11
S'\x00\x00\x00\x00\x00\x00\x00\x00'
p507
tp508
Rp509
sg48
g5
ssS'LEWIS RICHARD'
p510
(dp511
g3
I952
sg4
g5
sg6
g7
(g11
S'\xd8\xc1zK\xd4\xa2\x92?'
p512
tp513
Rp514
sg17
g5
sg18
I00
sg19
g5
sg20
S'richard.lewis@enron.com'
p515
sg22
g5
sg23
I0
sg24
g5
sg25
g7
(g11
S'\xc9\xe7\xf3*QB\x99?'
p516
tp517
Rp518
sg26
I739
sg27
g5
sg28
I26
sg29
g5
sg30
g5
sg31
g5
sg32
I850477
sg33
I10
sg34
I0
sg38
I0
sg39
I0
sg40
g5
sg41
g5
sg42
I0
sg46
g5
sg47
I0
sg48
I850477
ssS'HAYES ROBERT E'
p519
(dp520
g3
I504
sg4
I7961
sg6
g7
(g11
S'\x9c\r\xf2\x94\xb7Jp?'
p521
tp522
Rp523
sg17
g5
sg18
I00
sg19
g5
sg20
S'robert.hayes@enron.com'
p524
sg22
g5
sg23
I0
sg24
g5
sg25
I0
sg26
I50
sg27
g5
sg28
I12
sg29
g5
sg30
g5
sg31
g5
sg32
I151418
sg33
I16
sg34
I0
sg38
I0
sg39
I0
sg40
I151418
sg41
g5
sg42
I0
sg46
I7961
sg47
I0
sg48
g5
ssS'MCCARTY DANNY J'
p525
(dp526
g3
I1433
sg4
g5
sg6
g7
(g11
S's+\x8f\x02\x9b\xba\x90?'
p527
tp528
Rp529
sg17
g5
sg18
I00
sg19
g5
sg20
S'danny.mccarty@enron.com'
p530
sg22
g5
sg23
I0
sg24
g5
sg25
g7
(g11
S'\xb4\x9e\x96\xc4\xdd\xb5\x93?'
p531
tp532
Rp533
sg26
I508
sg27
g5
sg28
I215
sg29
g5
sg30
g5
sg31
g5
sg32
I758931
sg33
I25
sg34
I0
sg38
I0
sg39
I2
sg40
I94556
sg41
g5
sg42
I0
sg46
g5
sg47
I0
sg48
I664375
ssS'KOPPER MICHAEL J'
p534
(dp535
g3
g5
sg4
g5
sg6
g7
(g11
S'\x9c\x08\x82\x9blp\x95?'
p536
tp537
Rp538
sg17
I118134
sg18
I01
sg19
g5
sg20
S'michael.kopper@enron.com'
p539
sg22
I602671
sg23
F4.391484808631105
sg24
g5
sg25
I0
sg26
g5
sg27
g5
sg28
g5
sg29
I907502
sg30
g5
sg31
I800000
sg32
I985032
sg33
g5
sg34
g7
(g11
S'5\xbc\xa1\xc3\xf2\x90\xb7?'
p540
tp541
Rp542
sg38
I0
sg39
g5
sg40
I985032
sg41
I224305
sg42
g7
(g11
S'\x00\x9a\xb4\x04\xeb\xca\xc9?'
p543
tp544
Rp545
sg46
I2652612
sg47
g7
(g11
S'\x84\\;:\t\xe7\xba?'
p546
tp547
Rp548
sg48
g5
ssS'LEFF DANIEL P'
p549
(dp550
g3
I2822
sg4
g5
sg6
g7
(g11
S'F_\x17G\xc4\xdb\x80?'
p551
tp552
Rp553
sg17
g5
sg18
I00
sg19
g5
sg20
S'dan.leff@enron.com'
p554
sg22
I1387399
sg23
F1.3170165043507485
sg24
g5
sg25
I0
sg26
I2672
sg27
g5
sg28
I63
sg29
I3083
sg30
g5
sg31
I1000000
sg32
I360528
sg33
I67
sg34
g7
(g11
S'\xc2\xe8\x87\x93\xcf\x05\xbe?'
p555
tp556
Rp557
sg38
I0
sg39
I14
sg40
I360528
sg41
I273746
sg42
g7
(g11
S'\x01K\x13\x00m}\xcf?'
p558
tp559
Rp560
sg46
I2664228
sg47
g7
(g11
S'\xd6W\x93\xe7\x8c\x9e\xd0?'
p561
tp562
Rp563
sg48
g5
ssS'LAVORATO JOHN J'
p564
(dp565
g3
I7259
sg4
g5
sg6
g7
(g11
S'\xa4\xa34U\x02$\xbb?'
p566
tp567
Rp568
sg17
I49537
sg18
I00
sg19
g5
sg20
S'john.lavorato@enron.com'
p569
sg22
I2035380
sg23
F15.229374454740515
sg24
g5
sg25
g7
(g11
S'\xce\x1c\xf0/\xc4\xf9\xbe?'
p570
tp571
Rp572
sg26
I3962
sg27
g5
sg28
I2585
sg29
I1552
sg30
g5
sg31
I8000000
sg32
I5167144
sg33
I528
sg34
g7
(g11
S'\x00\x00\x00\x00\x00\x00\xf0?'
p573
tp574
Rp575
sg38
I0
sg39
I411
sg40
I1008149
sg41
I339288
sg42
g7
(g11
S'\x92\x8a7\xcbt\x85\xd3?'
p576
tp577
Rp578
sg46
I10425757
sg47
g7
(g11
S'\x0e\x17M\x03\xfa\xc9\xd8?'
p579
tp580
Rp581
sg48
I4158995
ssS'BERBERIAN DAVID'
p582
(dp583
g3
g5
sg4
g5
sg6
g7
(g11
S'AJ\x12\xd4\xecn\xaa?'
p584
tp585
Rp586
sg17
I11892
sg18
I00
sg19
g5
sg20
S'david.berberian@enron.com'
p587
sg22
g5
sg23
F11.513496043069138
sg24
g5
sg25
g7
(g11
S'K\xee\xeb\x00\xaf*\xa8?'
p588
tp589
Rp590
sg26
g5
sg27
g5
sg28
g5
sg29
g5
sg30
g5
sg31
g5
sg32
I2493616
sg33
g5
sg34
I0
sg38
I0
sg39
g5
sg40
I869220
sg41
I216582
sg42
g7
(g11
S'\\\xbe \xfe\x16\xe7\xc8?'
p591
tp592
Rp593
sg46
I228474
sg47
I0
sg48
I1624396
ssS'DETMERING TIMOTHY J'
p594
(dp595
g3
g5
sg4
I875307
sg6
g7
(g11
S'\xf2mU0\xfa\x94\xa5?'
p596
tp597
Rp598
sg17
I52255
sg18
I00
sg19
I-775241
sg20
S'timothy.detmering@enron.com'
p599
sg22
I415657
sg23
F9.63356294536817
sg24
I-315068
sg25
g7
(g11
S'\x82\xfd\xe8\xa4s.\xae?'
p600
tp601
Rp602
sg26
g5
sg27
g5
sg28
g5
sg29
I1105
sg30
g5
sg31
I425000
sg32
I2027865
sg33
g5
sg34
g7
(g11
S'[Q\xa4{\xa9\xeb\xa6?'
p603
tp604
Rp605
sg38
g7
(g11
S'W\x01\x0b\xe9G\xed\xe8?'
p606
tp607
Rp608
sg39
g5
sg40
I315068
sg41
I210500
sg42
g7
(g11
S'\x19\xce\xb7\xc8\xab3\xc8?'
p609
tp610
Rp611
sg46
I1204583
sg47
g7
(g11
S'\x8bo:{\x9bx\xb1?'
p612
tp613
Rp614
sg48
I2027865
ssS'POWERS WILLIAM'
p615
(dp616
g3
I653
sg4
g5
sg6
I0
sg17
g5
sg18
I00
sg19
I-17500
sg20
S'ken.powers@enron.com'
p617
sg22
g5
sg23
I0
sg24
g5
sg25
I0
sg26
I12
sg27
g5
sg28
I26
sg29
g5
sg30
I17500
sg31
g5
sg32
g5
sg33
I0
sg34
I0
sg38
g7
(g11
S'a\xda`}\x07\xd9\xef?'
p618
tp619
Rp620
sg39
I0
sg40
g5
sg41
g5
sg42
I0
sg46
g5
sg47
I0
sg48
g5
ssS'GOLD JOSEPH'
p621
(dp622
g3
g5
sg4
g5
sg6
g7
(g11
S'\x8a\xf1\xfd\x9c\x893\x93?'
p623
tp624
Rp625
sg17
g5
sg18
I00
sg19
g5
sg20
S'joe.gold@enron.com'
p626
sg22
I304805
sg23
F3.2161059806508354
sg24
g5
sg25
g7
(g11
S'\xdfoa\x05b\xd5\x89?'
p627
tp628
Rp629
sg26
g5
sg27
g5
sg28
g5
sg29
I819288
sg30
g5
sg31
I750000
sg32
I877611
sg33
g5
sg34
g7
(g11
S'\x121\xa8\x8f\xbb\xf3\xb5?'
p630
tp631
Rp632
sg38
I0
sg39
g5
sg40
I441096
sg41
I272880
sg42
g7
(g11
S'\x8a\xcd\xe6\xf9\xe0c\xcf?'
p633
tp634
Rp635
sg46
I2146973
sg47
g7
(g11
S'\x92e\xces\xec\xc2\xa7?'
p636
tp637
Rp638
sg48
I436515
ssS'BANNANTINE JAMES M'
p639
(dp640
g3
I566
sg4
g5
sg6
g7
(g11
S':\x02\xb3\x97\xcb\x89\xbb?'
p641
tp642
Rp643
sg17
I56301
sg18
I00
sg19
I-5104
sg20
S'james.bannantine@enron.com'
p644
sg22
g5
sg23
F10992.635220125787
sg24
I-560222
sg25
g7
(g11
S'7\x05\xe2\x05t"\xbe?'
p645
tp646
Rp647
sg26
I465
sg27
g5
sg28
I29
sg29
I864523
sg30
g5
sg31
g5
sg32
I5243487
sg33
I39
sg34
I0
sg38
g7
(g11
S'\x9aNzx\x03\xf6\xef?'
p648
tp649
Rp650
sg39
I0
sg40
I1757552
sg41
I477
sg42
g7
(g11
S'\x00\x00\x00\x00\x00\x00\x00\x00'
p651
tp652
Rp653
sg46
I916197
sg47
I0
sg48
I4046157
ssS'DUNCAN JOHN H'
p654
(dp655
g3
g5
sg4
g5
sg6
g7
(g11
S'\nF1wvS\x81?'
p656
tp657
Rp658
sg17
g5
sg18
I00
sg19
I-25000
sg20
g5
sg22
g5
sg23
I0
sg24
g5
sg25
g7
(g11
S'i\xe2\xbb\xe7\xb9\xf8\x85?'
p659
tp660
Rp661
sg26
g5
sg27
g5
sg28
g5
sg29
g5
sg30
I102492
sg31
g5
sg32
I371750
sg33
g5
sg34
I0
sg38
g7
(g11
S'\xeeMb&~\xc7\xef?'
p662
tp663
Rp664
sg39
g5
sg40
g5
sg41
g5
sg42
I0
sg46
I77492
sg47
I0
sg48
I371750
ssS'SHAPIRO RICHARD S'
p665
(dp666
g3
I15149
sg4
g5
sg6
g7
(g11
S'\x89%~\xd4\xecz\x95?'
p667
tp668
Rp669
sg17
I137767
sg18
I00
sg19
g5
sg20
S'richard.shapiro@enron.com'
p670
sg22
g5
sg23
F3.668112354873716
sg24
g5
sg25
g7
(g11
S'\xda\xe5\x1d\xebT\x06\x92?'
p671
tp672
Rp673
sg26
I4527
sg27
g5
sg28
I1215
sg29
I705
sg30
g5
sg31
I650000
sg32
I987001
sg33
I74
sg34
g7
(g11
S"\xcc\x1a\xb5'M\xb9\xb2?"
p674
tp675
Rp676
sg38
I0
sg39
I65
sg40
I379164
sg41
I269076
sg42
g7
(g11
S'\x805\xeb3\xa9\xf3\xce?'
p677
tp678
Rp679
sg46
I1057548
sg47
I0
sg48
I607837
ssS'SHERRIFF JOHN R'
p680
(dp681
g3
I3187
sg4
g5
sg6
g7
(g11
S't\xf8%n\x94\x86\xb0?'
p682
tp683
Rp684
sg17
g5
sg18
I00
sg19
g5
sg20
S'john.sherriff@enron.com'
p685
sg22
I554422
sg23
F7.297406595456878
sg24
g5
sg25
g7
(g11
S'\xb4\x9c\x84\xca\x8bP\xab?'
p686
tp687
Rp688
sg26
I2103
sg27
g5
sg28
I92
sg29
I1852186
sg30
g5
sg31
I1500000
sg32
I3128982
sg33
I28
sg34
g7
(g11
S'\x11\xac\xa3\xcd\xfb\x14\xc7?'
p689
tp690
Rp691
sg38
I0
sg39
I23
sg40
I1293424
sg41
I428780
sg42
g7
(g11
S'\x8fC\xb0-v\xad\xd8?'
p692
tp693
Rp694
sg46
I4335388
sg47
g7
(g11
S'[\xe4L\x10\x1fx\xb8?'
p695
tp696
Rp697
sg48
I1835558
ssS'SHELBY REX'
p698
(dp699
g3
I225
sg4
g5
sg6
g7
(g11
S'AJ\x12\xd4\xecn\xaa?'
p700
tp701
Rp702
sg17
I22884
sg18
I01
sg19
I-4167
sg20
S'rex.shelby@enron.com'
p703
sg22
g5
sg23
F11.771001302845491
sg24
g5
sg25
g7
(g11
S'K\xee\xeb\x00\xaf*\xa8?'
p704
tp705
Rp706
sg26
I91
sg27
g5
sg28
I39
sg29
I1573324
sg30
g5
sg31
I200000
sg32
I2493616
sg33
I13
sg34
g7
(g11
S':\xda\xbcOq\xc9\x90?'
p707
tp708
Rp709
sg38
g7
(g11
S'\x91\xe6\xbbV4\xf8\xef?'
p710
tp711
Rp712
sg39
I14
sg40
I869220
sg41
I211844
sg42
g7
(g11
S'\xd2\xee\xe9\xa8Q[\xc8?'
p713
tp714
Rp715
sg46
I2003885
sg47
I0
sg48
I1624396
ssS'LEMAISTRE CHARLES'
p716
(dp717
g3
g5
sg4
g5
sg6
g7
(g11
S'WJ.]$\n\x83?'
p718
tp719
Rp720
sg17
g5
sg18
I00
sg19
I-25000
sg20
g5
sg22
g5
sg23
I0
sg24
g5
sg25
g7
(g11
S'6\x99D\xa2\x8el\x88?'
p721
tp722
Rp723
sg26
g5
sg27
g5
sg28
g5
sg29
g5
sg30
I112492
sg31
g5
sg32
I412878
sg33
g5
sg34
I0
sg38
g7
(g11
S'\xeeMb&~\xc7\xef?'
p724
tp725
Rp726
sg39
g5
sg40
g5
sg41
g5
sg42
I0
sg46
I87492
sg47
I0
sg48
I412878
ssS'DEFFNER JOSEPH M'
p727
(dp728
g3
I714
sg4
g5
sg6
g7
(g11
S':\xccj\xdf\xf5\xf0p?'
p729
tp730
Rp731
sg17
I41626
sg18
I00
sg19
g5
sg20
S'joseph.deffner@enron.com'
p732
sg22
I335349
sg23
F0.7724152318298475
sg24
g5
sg25
g7
(g11
S'|y~\xe1G\xe4:?'
p733
tp734
Rp735
sg26
I552
sg27
g5
sg28
I74
sg29
I25553
sg30
g5
sg31
I600000
sg32
I159211
sg33
I115
sg34
g7
(g11
S'\xa9\x8f\xbb\xf3\x15\x1c\xb1?'
p736
tp737
Rp738
sg38
I0
sg39
I4
sg40
I141833
sg41
I206121
sg42
g7
(g11
S'@\xdc\xac\x9d}\xb2\xc7?'
p739
tp740
Rp741
sg46
I1208649
sg47
g7
(g11
S'\xd4O ^\x98\xd7\xaa?'
p742
tp743
Rp744
sg48
I17378
ssS'KISHKILL JOSEPH G'
p745
(dp746
g3
g5
sg4
g5
sg6
g7
(g11
S'\xf9R\x82\xaekw\x96?'
p747
tp748
Rp749
sg17
I116335
sg18
I00
sg19
I-51042
sg20
S'joe.kishkill@enron.com'
p750
sg22
g5
sg23
F5.936124789091285
sg24
g5
sg25
I0
sg26
g5
sg27
g5
sg28
g5
sg29
I465357
sg30
g5
sg31
g5
sg32
I1034346
sg33
g5
sg34
I0
sg38
g7
(g11
S'\xbf\xf8\x04\xf7\x99\x8a\xef?'
p751
tp752
Rp753
sg39
g5
sg40
I1034346
sg41
I174246
sg42
g7
(g11
S'\xa9\xb7\xf5\xe7-\x06\xc4?'
p754
tp755
Rp756
sg46
I704896
sg47
I0
sg48
g5
ssS'WHALLEY LAWRENCE G'
p757
(dp758
g3
I6019
sg4
g5
sg6
g7
(g11
S'\xa6\xd9\xcd1\xf2\xe3\xbf?'
p759
tp760
Rp761
sg17
I57838
sg18
I00
sg19
g5
sg20
S'greg.whalley@enron.com'
p762
sg22
I808346
sg23
F11.911375018614166
sg24
g5
sg25
g7
(g11
S'%\xcfne&r\xb8?'
p763
tp764
Rp765
sg26
I3920
sg27
g5
sg28
I556
sg29
I301026
sg30
g5
sg31
I3000000
sg32
I6079137
sg33
I186
sg34
g7
(g11
S'\x90i\xa1\xec\x9b\xa5\xd7?'
p766
tp767
Rp768
sg38
I0
sg39
I24
sg40
I2796177
sg41
I510364
sg42
g7
(g11
S'm\x15\xba\xfd\xd2`\xdd?'
p769
tp770
Rp771
sg46
I4677574
sg47
g7
(g11
S'\xae-hi1\xa3\xc2?'
p772
tp773
Rp774
sg48
I3282960
ssS'MCCONNELL MICHAEL S'
p775
(dp776
g3
I3329
sg4
g5
sg6
g7
(g11
S'\n\xcf\xfc\xe3\xa4a\xb0?'
p777
tp778
Rp779
sg17
I81364
sg18
I00
sg19
g5
sg20
S'mike.mcconnell@enron.com'
p780
sg22
I554422
sg23
F8.495770303365678
sg24
g5
sg25
g7
(g11
S'.r:\xe9d%\xa8?'
p781
tp782
Rp783
sg26
I2189
sg27
g5
sg28
I2742
sg29
I540
sg30
g5
sg31
I1100000
sg32
I3101279
sg33
I92
sg34
g7
(g11
S'\x84\x7f\xbd\xfd\x1e\xa0\xc0?'
p784
tp785
Rp786
sg38
I0
sg39
I194
sg40
I1478269
sg41
I365038
sg42
g7
(g11
S'\xf986\xadD\x01\xd5?'
p787
tp788
Rp789
sg46
I2101364
sg47
g7
(g11
S'[\xe4L\x10\x1fx\xb8?'
p790
tp791
Rp792
sg48
I1623010
ssS'PIRO JIM'
p793
(dp794
g3
I58
sg4
g5
sg6
g7
(g11
S'\x1e\xf5!\xbf\xddv^?'
p795
tp796
Rp797
sg17
g5
sg18
I00
sg19
g5
sg20
S'jim.piro@enron.com'
p798
sg22
g5
sg23
I0
sg24
g5
sg25
I0
sg26
I3
sg27
g5
sg28
I16
sg29
g5
sg30
g5
sg31
g5
sg32
I47304
sg33
I0
sg34
I0
sg38
I0
sg39
I1
sg40
I47304
sg41
g5
sg42
I0
sg46
g5
sg47
I0
sg48
g5
ssS'DELAINEY DAVID W'
p799
(dp800
g3
I3093
sg4
g5
sg6
g7
(g11
S'm\x15T\x03\x97\r\xb3?'
p801
tp802
Rp803
sg17
I86174
sg18
I01
sg19
g5
sg20
S'david.delainey@enron.com'
p804
sg22
I1294981
sg23
F9.897664878424155
sg24
g5
sg25
g7
(g11
S'4\xb1j\xac\x8b\r\xb1?'
p805
tp806
Rp807
sg26
I2097
sg27
g5
sg28
I3069
sg29
I1661
sg30
g5
sg31
I3000000
sg32
I3614261
sg33
I66
sg34
g7
(g11
S'\x90i\xa1\xec\x9b\xa5\xd7?'
p808
tp809
Rp810
sg38
I0
sg39
I609
sg40
I1323148
sg41
I365163
sg42
g7
(g11
S'A\xef\x10\xad\x1c\x03\xd5?'
p811
tp812
Rp813
sg46
I4747979
sg47
g7
(g11
S'\x1eeB\xfb\x85\xe8\xce?'
p814
tp815
Rp816
sg48
I2291113
ssS'SULLIVAN-SHAKLOVITZ COLLEEN'
p817
(dp818
g3
g5
sg4
I181993
sg6
g7
(g11
S'!\xbc\x1d\xd4\xd4L\x9d?'
p819
tp820
Rp821
sg17
g5
sg18
I00
sg19
g5
sg20
g5
sg22
I554422
sg23
F8.369476406661793
sg24
g5
sg25
g7
(g11
S'\xdd\x91\xbf\r\xbaB\xa4?'
p822
tp823
Rp824
sg26
g5
sg27
g5
sg28
g5
sg29
I162
sg30
g5
sg31
I100000
sg32
I1362375
sg33
g5
sg34
g7
(g11
S'\x08\t\x84\x7f\xbd\xfdn?'
p825
tp826
Rp827
sg38
I0
sg39
g5
sg40
g5
sg41
I162779
sg42
g7
(g11
S'\x04\xca\xfa9\xe7\xb3\xc2?'
p828
tp829
Rp830
sg46
I999356
sg47
g7
(g11
S'[\xe4L\x10\x1fx\xb8?'
p831
tp832
Rp833
sg48
I1362375
ssS'LINDHOLM TOD A'
p834
(dp835
g3
g5
sg4
I204075
sg6
g7
(g11
S'\xc0\x9a\xa6\xe170\xb0?'
p836
tp837
Rp838
sg17
I57727
sg18
I00
sg19
g5
sg20
S'tod.lindholm@enron.com'
p839
sg22
I175000
sg23
F12.958838181995034
sg24
g5
sg25
g7
(g11
S'}\xf6\xf9\x13S\xfa\xb2?'
p840
tp841
Rp842
sg26
g5
sg27
g5
sg28
g5
sg29
I2630
sg30
g5
sg31
I200000
sg32
I3064208
sg33
g5
sg34
g7
(g11
S':\xda\xbcOq\xc9\x90?'
p843
tp844
Rp845
sg38
I0
sg39
g5
sg40
I514847
sg41
I236457
sg42
g7
(g11
S'\x84,\xcf\xcff1\xcb?'
p846
tp847
Rp848
sg46
I875889
sg47
g7
(g11
S'h_\x9c*\x80V\x95?'
p849
tp850
Rp851
sg48
I2549361
ssS'MEYER JEROME J'
p852
(dp853
g3
g5
sg4
g5
sg6
I0
sg17
I2151
sg18
I00
sg19
I-38346
sg20
g5
sg22
g5
sg23
I0
sg24
g5
sg25
I0
sg26
g5
sg27
g5
sg28
g5
sg29
g5
sg30
I38346
sg31
g5
sg32
g5
sg33
g5
sg34
I0
sg38
g7
(g11
S'Xh\xf5\x84I\xa8\xef?'
p854
tp855
Rp856
sg39
g5
sg40
g5
sg41
g5
sg42
I0
sg46
I2151
sg47
I0
sg48
g5
ssS'LAY KENNETH L'
p857
(dp858
g3
I4273
sg4
I202911
sg6
g7
(g11
S'\x00\x00\x00\x00\x00\x00\xf0?'
p859
tp860
Rp861
sg17
I99832
sg18
I01
sg19
I-300000
sg20
S'kenneth.lay@enron.com'
p862
sg22
I3600000
sg23
F45.79792618068657
sg24
g5
sg25
g7
(g11
S'\xff\xff\xff\xff\xff\xff\xef?'
p863
tp864
Rp865
sg26
I2411
sg27
I81525000
sg28
I36
sg29
I10359729
sg30
g5
sg31
I7000000
sg32
I49110078
sg33
I123
sg34
g7
(g11
S'($\x10\xfe\xf5\xf6\xeb?'
p866
tp867
Rp868
sg38
g7
(g11
S'\xba\xda\xec\x05}D\xed?'
p869
tp870
Rp871
sg39
I16
sg40
I14761694
sg41
I1072321
sg42
g7
(g11
S')\x82Y\x08\xd7\xe0\xee?'
p872
tp873
Rp874
sg46
I103559793
sg47
g7
(g11
S'\x16\xfc\xfb\xb0\xf9A\xe6?'
p875
tp876
Rp877
sg48
I34348384
ssS'BUTTS ROBERT H'
p878
(dp879
g3
g5
sg4
g5
sg6
g7
(g11
S'SB\x03\xe2\xb5<\x83?'
p880
tp881
Rp882
sg17
I9410
sg18
I00
sg19
I-75000
sg20
S'bob.butts@enron.com'
p883
sg22
I175000
sg23
F1.596915676287493
sg24
g5
sg25
I0
sg26
g5
sg27
g5
sg28
g5
sg29
I150656
sg30
g5
sg31
I750000
sg32
I417619
sg33
g5
sg34
g7
(g11
S'\x121\xa8\x8f\xbb\xf3\xb5?'
p884
tp885
Rp886
sg38
g7
(g11
S'AP\xc17\x95R\xef?'
p887
tp888
Rp889
sg39
g5
sg40
I417619
sg41
I261516
sg42
g7
(g11
S's=\xd1&\xa4\x14\xce?'
p890
tp891
Rp892
sg46
I1271582
sg47
g7
(g11
S'h_\x9c*\x80V\x95?'
p893
tp894
Rp895
sg48
g5
ssS'OLSON CINDY K'
p896
(dp897
g3
I1184
sg4
I77716
sg6
g7
(g11
S'&=)\x1a\xa3\x9c\xab?'
p898
tp899
Rp900
sg17
I63791
sg18
I00
sg19
g5
sg20
S'cindy.olson@enron.com'
p901
sg22
I100000
sg23
F7.921413768164387
sg24
g5
sg25
g7
(g11
S'\xcc$\xa3\x0f\xeaZ\xa8?'
p902
tp903
Rp904
sg26
I856
sg27
g5
sg28
I52
sg29
I972
sg30
g5
sg31
I750000
sg32
I2606763
sg33
I20
sg34
g7
(g11
S'\x121\xa8\x8f\xbb\xf3\xb5?'
p905
tp906
Rp907
sg38
I0
sg39
I15
sg40
I969729
sg41
I329078
sg42
g7
(g11
S'U\xa9Z\xe1\xdb\xee\xd2?'
p908
tp909
Rp910
sg46
I1321557
sg47
g7
(g11
S'\x8a\xc1w\x9c\x80\xd5x?'
p911
tp912
Rp913
sg48
I1637034
ssS'MCDONALD REBECCA'
p914
(dp915
g3
I894
sg4
g5
sg6
g7
(g11
S'\xe7\x19\x1f\xaf\xaf\x13\xa2?'
p916
tp917
Rp918
sg17
g5
sg18
I00
sg19
g5
sg20
S'rebecca.mcdonald@enron.com'
p919
sg22
g5
sg23
I0
sg24
g5
sg25
g7
(g11
S'\xbb^!9#{\x96?'
p920
tp921
Rp922
sg26
I720
sg27
g5
sg28
I13
sg29
g5
sg30
g5
sg31
g5
sg32
I1691366
sg33
I54
sg34
I0
sg38
I0
sg39
I1
sg40
I934065
sg41
g5
sg42
I0
sg46
g5
sg47
I0
sg48
I757301
ssS'CUMBERLAND MICHAEL S'
p923
(dp924
g3
g5
sg4
g5
sg6
g7
(g11
S'\xde\xfbCnw\x00u?'
p925
tp926
Rp927
sg17
I22344
sg18
I00
sg19
g5
sg20
g5
sg22
I275000
sg23
F1.1246139784422846
sg24
g5
sg25
I0
sg26
g5
sg27
g5
sg28
g5
sg29
I713
sg30
g5
sg31
I325000
sg32
I207940
sg33
g5
sg34
g7
(g11
S'\xce$\xbe\xab\xccv\xa0?'
p928
tp929
Rp930
sg38
I0
sg39
g5
sg40
I207940
sg41
I184899
sg42
g7
(g11
S'\xdfy\xdeCq@\xc5?'
p931
tp932
Rp933
sg46
I807956
sg47
g7
(g11
S'\r\xcf\xf7lU\xc1\xa4?'
p934
tp935
Rp936
sg48
g5
ssS'GAHN ROBERT S'
p937
(dp938
g3
g5
sg4
I73122
sg6
g7
(g11
S'\x9a\x02\xd1\x1cB9~?'
p939
tp940
Rp941
sg17
I50080
sg18
I00
sg19
I-1042
sg20
g5
sg22
g5
sg23
F1.6593423190700387
sg24
g5
sg25
g7
(g11
S'{\x9f\x03|\xf6\x11c?'
p942
tp943
Rp944
sg26
g5
sg27
g5
sg28
g5
sg29
I76547
sg30
g5
sg31
I509870
sg32
I318607
sg33
g5
sg34
g7
(g11
S'\x9e\xcc\xf4Lrf\xac?'
p945
tp946
Rp947
sg38
g7
(g11
S'k\xf6\xa5\xe5\x82\xff\xef?'
p948
tp949
Rp950
sg39
g5
sg40
I235370
sg41
I192008
sg42
g7
(g11
S'/>O^(\x12\xc6?'
p951
tp952
Rp953
sg46
I900585
sg47
I0
sg48
I83237
ssS'MCCLELLAN GEORGE'
p954
(dp955
g3
I1744
sg4
g5
sg6
g7
(g11
S'e\xe2+\x0b0\xaa\x94?'
p956
tp957
Rp958
sg17
I228763
sg18
I00
sg19
I-125000
sg20
S'george.mcclellan@enron.com'
p959
sg22
g5
sg23
F3.5983835270089175
sg24
g5
sg25
g7
(g11
S'\x99\xc4\xf8\x0c\xc5\x05\x8e?'
p960
tp961
Rp962
sg26
I1469
sg27
g5
sg28
I49
sg29
I51587
sg30
g5
sg31
I900000
sg32
I947861
sg33
I52
sg34
g7
(g11
S'|\xd2\x94+a\xcb\xba?'
p963
tp964
Rp965
sg38
g7
(g11
S'\x95R I\xac\xdd\xee?'
p966
tp967
Rp968
sg39
I0
sg40
I441096
sg41
I263413
sg42
g7
(g11
S'\xf7\xa8BG\x9aL\xce?'
p969
tp970
Rp971
sg46
I1318763
sg47
I0
sg48
I506765
ssS'HERMANN ROBERT J'
p972
(dp973
g3
g5
sg4
g5
sg6
g7
(g11
S'\xf8\xf2\x0f+\xbb\xac\x8d?'
p974
tp975
Rp976
sg17
I48357
sg18
I00
sg19
I-280000
sg20
S'robert.hermann@enron.com'
p977
sg22
I150000
sg23
F2.543685254489593
sg24
g5
sg25
g7
(g11
S'\x9a\xbe\xd0 1\xf8u?'
p978
tp979
Rp980
sg26
g5
sg27
g5
sg28
g5
sg29
I416441
sg30
g5
sg31
I700000
sg32
I668132
sg33
g5
sg34
g7
(g11
S'\xef\xa5\xae[\x84V\xb4?'
p981
tp982
Rp983
sg38
g7
(g11
S'\x98\xa6\x93\x98@s\xed?'
p984
tp985
Rp986
sg39
g5
sg40
I480632
sg41
I262663
sg42
g7
(g11
S'\x90\x1d\x02Iz6\xce?'
p987
tp988
Rp989
sg46
I1297461
sg47
g7
(g11
S'\xbc\x8f\xc7~uK\x90?'
p990
tp991
Rp992
sg48
I187500
ssS'GATHMANN WILLIAM D'
p993
(dp994
g3
g5
sg4
g5
sg6
g7
(g11
S'\xba\x85[C\xf9\xb8\xa4?'
p995
tp996
Rp997
sg17
g5
sg18
I00
sg19
g5
sg20
g5
sg22
g5
sg23
I0
sg24
I-72419
sg25
g7
(g11
S'\xd0\xf9\xb1\xbef\x18\xaa?'
p998
tp999
Rp1000
sg26
g5
sg27
g5
sg28
g5
sg29
g5
sg30
g5
sg31
g5
sg32
I1945360
sg33
g5
sg34
I0
sg38
I0
sg39
g5
sg40
I264013
sg41
g5
sg42
I0
sg46
g5
sg47
I0
sg48
I1753766
ssS'HAEDICKE MARK E'
p1001
(dp1002
g3
I4009
sg4
I2157527
sg6
g7
(g11
S'=P\x16\x90!\xa6\x91?'
p1003
tp1004
Rp1005
sg17
I76169
sg18
I00
sg19
I-934484
sg20
S'mark.haedicke@enron.com'
p1006
sg22
I983346
sg23
F2.146592716338122
sg24
I-329825
sg25
g7
(g11
S'\xcbd\xb2\xe1L\r\x92?'
p1007
tp1008
Rp1009
sg26
I1847
sg27
g5
sg28
I1941
sg29
I52382
sg30
g5
sg31
I1150000
sg32
I803094
sg33
I180
sg34
g7
(g11
S'\x16E\xba\x97\xban\xc1?'
p1010
tp1011
Rp1012
sg38
g7
(g11
S' =\x95s\xf0x\xe7?'
p1013
tp1014
Rp1015
sg39
I61
sg40
I524169
sg41
I374125
sg42
g7
(g11
S'(\xf8\xb1%M\x87\xd5?'
p1016
tp1017
Rp1018
sg46
I3859065
sg47
g7
(g11
S'ec\xc2\xbf\xda\x0c\xc7?'
p1019
tp1020
Rp1021
sg48
I608750
ssS'BOWEN JR RAYMOND M'
p1022
(dp1023
g3
I1858
sg4
g5
sg6
g7
(g11
S'!)z\x82\x8b\xadx?'
p1024
tp1025
Rp1026
sg17
I65907
sg18
I01
sg19
I-833
sg20
S'raymond.bowen@enron.com'
p1027
sg22
I974293
sg23
F0.9047167813468007
sg24
g5
sg25
I0
sg26
I1593
sg27
g5
sg28
I27
sg29
I1621
sg30
g5
sg31
I1350000
sg32
I252055
sg33
I140
sg34
g7
(g11
S'\\[\xad\xff(\xa9\xc4?'
p1028
tp1029
Rp1030
sg38
g7
(g11
S'\x00\x00\x00\x00\x00\x00\xf0?'
p1031
tp1032
Rp1033
sg39
I15
sg40
I252055
sg41
I278601
sg42
g7
(g11
S'\x8d\xa9B\xf5R\x06\xd0?'
p1034
tp1035
Rp1036
sg46
I2669589
sg47
g7
(g11
S'\xad\x97U]j\xd2\xc6?'
p1037
tp1038
Rp1039
sg48
g5
ssS'FITZGERALD JAY L'
p1040
(dp1041
g3
I936
sg4
g5
sg6
g7
(g11
S'Q!\xa0b\xaeX\xa1?'
p1042
tp1043
Rp1044
sg17
I23870
sg18
I00
sg19
g5
sg20
S'jay.fitzgerald@enron.com'
p1045
sg22
I556416
sg23
F8.140492174515582
sg24
g5
sg25
g7
(g11
S'\xc2\xb4\xea\xce\x85\xb6\x93?'
p1046
tp1047
Rp1048
sg26
I723
sg27
g5
sg28
I16
sg29
I285414
sg30
g5
sg31
I350000
sg32
I1621236
sg33
I1
sg34
g7
(g11
S'\xf1\xaf\xb7\xdf\x03\x14\xa2?'
p1049
tp1050
Rp1051
sg38
I0
sg39
I8
sg40
I956775
sg41
I199157
sg42
g7
(g11
S'\x84\x06#\x8d\r\xe5\xc6?'
p1052
tp1053
Rp1054
sg46
I1414857
sg47
g7
(g11
S'>\xe0\xdf]\xdd\x91\xb8?'
p1055
tp1056
Rp1057
sg48
I664461
ssS'MORAN MICHAEL P'
p1058
(dp1059
g3
I672
sg4
g5
sg6
g7
(g11
S'V\x92\xcdN\x13\x1av?'
p1060
tp1061
Rp1062
sg17
g5
sg18
I00
sg19
g5
sg20
S'michael.moran@enron.com'
p1063
sg22
g5
sg23
I0
sg24
g5
sg25
g7
(g11
S'\xe9\xd0\x1e\xcf\xde\xd5Z?'
p1064
tp1065
Rp1066
sg26
I127
sg27
g5
sg28
I19
sg29
g5
sg30
g5
sg31
g5
sg32
I221141
sg33
I0
sg34
I0
sg38
I0
sg39
I0
sg40
I161602
sg41
g5
sg42
I0
sg46
g5
sg47
I0
sg48
I59539
ssS'REDMOND BRIAN L'
p1067
(dp1068
g3
I1671
sg4
g5
sg6
g7
(g11
S'\xcb"[\xb1`\xa9\xc4?'
p1069
tp1070
Rp1071
sg17
I14689
sg18
I00
sg19
g5
sg20
S'brian.redmond@enron.com'
p1072
sg22
g5
sg23
F81.47794299876084
sg24
g5
sg25
g7
(g11
S'{|\xd4\x8b\x18\xf9\xcb?'
p1073
tp1074
Rp1075
sg26
I1063
sg27
g5
sg28
I221
sg29
g5
sg30
g5
sg31
g5
sg32
I7890324
sg33
I204
sg34
I0
sg38
I0
sg39
I49
sg40
I381285
sg41
I96840
sg42
g7
(g11
S'SV]\xffh5\xb6?'
p1076
tp1077
Rp1078
sg46
I111529
sg47
I0
sg48
I7509039
ssS'BAZELIDES PHILIP J'
p1079
(dp1080
g3
g5
sg4
I684694
sg6
g7
(g11
S'6\x93\x86\xd9\x18\x1f\xa1?'
p1081
tp1082
Rp1083
sg17
g5
sg18
I00
sg19
g5
sg20
g5
sg22
I93750
sg23
F19.793127768566407
sg24
g5
sg25
g7
(g11
S'K)\x02\xe55\xcc\xa7?'
p1084
tp1085
Rp1086
sg26
g5
sg27
g5
sg28
g5
sg29
I874
sg30
g5
sg31
g5
sg32
I1599641
sg33
g5
sg34
I0
sg38
I0
sg39
g5
sg40
g5
sg41
I80818
sg42
g7
(g11
S'%\xa7P\x00\x1d\x84\xb2?'
p1087
tp1088
Rp1089
sg46
I860136
sg47
g7
(g11
S'\xde\xf1\xa2\xf0u\xcas?'
p1090
tp1091
Rp1092
sg48
I1599641
ssS'BELDEN TIMOTHY N'
p1093
(dp1094
g3
I7991
sg4
I2144013
sg6
g7
(g11
S'\xcdU\xa4\x90\xa6\x0e\x98?'
p1095
tp1096
Rp1097
sg17
I17355
sg18
I01
sg19
I-2334434
sg20
S'tim.belden@enron.com'
p1098
sg22
g5
sg23
F5.190234533806232
sg24
g5
sg25
g7
(g11
S'\xba\xc6\xce}\xe0Q\x9c?'
p1099
tp1100
Rp1101
sg26
I5521
sg27
g5
sg28
I484
sg29
I210698
sg30
g5
sg31
I5249999
sg32
I1110705
sg33
I228
sg34
g7
(g11
S'P\xde\xf86$\xe7\xe4?'
p1102
tp1103
Rp1104
sg38
g7
(g11
S'\xfe\xfa\x8f\x8f(_\xd5?'
p1105
tp1106
Rp1107
sg39
I108
sg40
I157569
sg41
I213999
sg42
g7
(g11
S'yg@3\xe4\x9a\xc8?'
p1108
tp1109
Rp1110
sg46
I5501630
sg47
I0
sg48
I953136
ssS'DURAN WILLIAM D'
p1111
(dp1112
g3
I904
sg4
g5
sg6
g7
(g11
S'\xb3mx\x93$\x8d\xa1?'
p1113
tp1114
Rp1115
sg17
I25785
sg18
I00
sg19
g5
sg20
S'w.duran@enron.com'
p1116
sg22
I1105218
sg23
F7.788193191957929
sg24
g5
sg25
g7
(g11
S'huM\xcaC\x98\xa5?'
p1117
tp1118
Rp1119
sg26
I599
sg27
g5
sg28
I12
sg29
I1568
sg30
g5
sg31
I750000
sg32
I1640910
sg33
I106
sg34
g7
(g11
S'\x121\xa8\x8f\xbb\xf3\xb5?'
p1120
tp1121
Rp1122
sg38
I0
sg39
I3
sg40
I189041
sg41
I210692
sg42
g7
(g11
S'3\xae,\xc4U9\xc8?'
p1123
tp1124
Rp1125
sg46
I2093263
sg47
g7
(g11
S'\xc2\xcaRK\x90\x1f\xca?'
p1126
tp1127
Rp1128
sg48
I1451869
ssS'THORN TERENCE H'
p1129
(dp1130
g3
I266
sg4
I16586
sg6
g7
(g11
S'\xeb\xceo{;R\xb9?'
p1131
tp1132
Rp1133
sg17
I46145
sg18
I00
sg19
g5
sg20
S'terence.thorn@enron.com'
p1134
sg22
I200000
sg23
F21.692696302900135
sg24
g5
sg25
g7
(g11
S'\x16\xf8\xdcD\xe3\x94\xc0?'
p1135
tp1136
Rp1137
sg26
I73
sg27
g5
sg28
I41
sg29
I426629
sg30
g5
sg31
g5
sg32
I4817796
sg33
I0
sg34
I0
sg38
I0
sg39
I0
sg40
I365320
sg41
I222093
sg42
g7
(g11
S'\xd0n\xb7\x03\xaa\x89\xc9?'
p1138
tp1139
Rp1140
sg46
I911453
sg47
g7
(g11
S'\x14/q\xd6\x8aa\x9a?'
p1141
tp1142
Rp1143
sg48
I4452476
ssS'FASTOW ANDREW S'
p1144
(dp1145
g3
g5
sg4
g5
sg6
g7
(g11
S'\x8f\x80{\xa5v&\xa3?'
p1146
tp1147
Rp1148
sg17
I55921
sg18
I01
sg19
I-1386055
sg20
S'andrew.fastow@enron.com'
p1149
sg22
I1736055
sg23
F4.0717498150661
sg24
g5
sg25
I0
sg26
g5
sg27
g5
sg28
g5
sg29
I277464
sg30
g5
sg31
I1300000
sg32
I1794412
sg33
g5
sg34
g7
(g11
S'\xcb\x95\xb0e\x8d\xda\xc3?'
p1150
tp1151
Rp1152
sg38
g7
(g11
S'\x10w\xf5\xb1\x13Y\xe3?'
p1153
tp1154
Rp1155
sg39
g5
sg40
I1794412
sg41
I440698
sg42
g7
(g11
S'AT\x02~@]\xd9?'
p1156
tp1157
Rp1158
sg46
I2424083
sg47
g7
(g11
S'\xc7CO\xbd\xdf\x03\xd5?'
p1159
tp1160
Rp1161
sg48
g5
ssS'FOY JOE'
p1162
(dp1163
g3
I57
sg4
I181755
sg6
g7
(g11
S'\x1a \xc6Rp%\x80?'
p1164
tp1165
Rp1166
sg17
g5
sg18
I00
sg19
g5
sg20
S'tracy.foy@enron.com'
p1167
sg22
g5
sg23
I0
sg24
g5
sg25
g7
(g11
S'b\x9a:byH\x84?'
p1168
tp1169
Rp1170
sg26
I2
sg27
g5
sg28
I13
sg29
g5
sg30
g5
sg31
g5
sg32
I343434
sg33
I0
sg34
I0
sg38
I0
sg39
I0
sg40
g5
sg41
g5
sg42
I0
sg46
I181755
sg47
I0
sg48
I343434
ssS'CALGER CHRISTOPHER F'
p1171
(dp1172
g3
I2598
sg4
g5
sg6
g7
(g11
S'\x90E\xc7\xfb!Zl?'
p1173
tp1174
Rp1175
sg17
I35818
sg18
I01
sg19
I-262500
sg20
S'christopher.calger@enron.com'
p1176
sg22
I375304
sg23
F0.5246992993017998
sg24
g5
sg25
I0
sg26
I2188
sg27
g5
sg28
I144
sg29
I486
sg30
g5
sg31
I1250000
sg32
I126027
sg33
I199
sg34
g7
(g11
S'9\xd0\xb3\xcb\xf1\x0b\xc3?'
p1177
tp1178
Rp1179
sg38
g7
(g11
S'\xfb\x98\xe5\xb8+\x9c\xed?'
p1180
tp1181
Rp1182
sg39
I25
sg40
I126027
sg41
I240189
sg42
g7
(g11
S'\x84\xf0~\xd7~\x9f\xcb?'
p1183
tp1184
Rp1185
sg46
I1639297
sg47
g7
(g11
S'\xfcy\xa7?D\xdf\xae?'
p1186
tp1187
Rp1188
sg48
g5
ssS'RICE KENNETH D'
p1189
(dp1190
g3
I905
sg4
g5
sg6
g7
(g11
S'\xd9%Jx\x8bh\xdd?'
p1191
tp1192
Rp1193
sg17
I46950
sg18
I01
sg19
I-3504386
sg20
S'ken.rice@enron.com'
p1194
sg22
I1617011
sg23
F53.591558972603394
sg24
g5
sg25
g7
(g11
S'AG\x98\xf0\x86p\xe2?'
p1195
tp1196
Rp1197
sg26
I864
sg27
g5
sg28
I18
sg29
I174839
sg30
g5
sg31
I1750000
sg32
I22542539
sg33
I42
sg34
g7
(g11
S'\xe9\x87\x93\xcf\x05\x1e\xcb?'
p1198
tp1199
Rp1200
sg38
g7
(g11
S'\x00\x00\x00\x00\x00\x00\x00\x00'
p1201
tp1202
Rp1203
sg39
I4
sg40
I2748364
sg41
I420636
sg42
g7
(g11
S'`\xdd\xb6xV5\xd8?'
p1204
tp1205
Rp1206
sg46
I505050
sg47
g7
(g11
S'\xfdu)\xa6\xa5\x83\xd3?'
p1207
tp1208
Rp1209
sg48
I19794175
ssS'KAMINSKI WINCENTY J'
p1210
(dp1211
g3
I4607
sg4
g5
sg6
g7
(g11
S'\x12\xcb\xfe\xf9s@\x95?'
p1212
tp1213
Rp1214
sg17
I83585
sg18
I00
sg19
g5
sg20
S'vince.kaminski@enron.com'
p1215
sg22
I323466
sg23
F3.5479223994096714
sg24
g5
sg25
g7
(g11
S'X\xc9l\xab\xc0>\x99?'
p1216
tp1217
Rp1218
sg26
I583
sg27
g5
sg28
I14368
sg29
I4669
sg30
g5
sg31
I400000
sg32
I976037
sg33
I41
sg34
g7
(g11
S'7\xc6\xaaGrN\xa5?'
p1219
tp1220
Rp1221
sg38
I0
sg39
I171
sg40
I126027
sg41
I275101
sg42
g7
(g11
S';s\xad\xf2e\xa5\xcf?'
p1222
tp1223
Rp1224
sg46
I1086821
sg47
g7
(g11
S'R\x89\xf6&\xc4\xa4\xa9?'
p1225
tp1226
Rp1227
sg48
I850010
ssS'COX DAVID'
p1228
(dp1229
g3
I102
sg4
g5
sg6
g7
(g11
S'\x90\x94\x08\xb4\xd2|\x86?'
p1230
tp1231
Rp1232
sg17
I27861
sg18
I00
sg19
I-41250
sg20
S'chip.cox@enron.com'
p1233
sg22
g5
sg23
F1.5770026217991142
sg24
g5
sg25
g7
(g11
S'\xbf\x93vD7Ak?'
p1234
tp1235
Rp1236
sg26
I71
sg27
g5
sg28
I33
sg29
I494
sg30
g5
sg31
I800000
sg32
I495633
sg33
I0
sg34
g7
(g11
S'5\xbc\xa1\xc3\xf2\x90\xb7?'
p1237
tp1238
Rp1239
sg38
g7
(g11
S'I\xc8:?\x7f\xa1\xef?'
p1240
tp1241
Rp1242
sg39
I4
sg40
I378082
sg41
I314288
sg42
g7
(g11
S'\xde!Y\xe8\xb4\x14\xd2?'
p1243
tp1244
Rp1245
sg46
I1101393
sg47
I0
sg48
I117551
ssS'OVERDYKE JR JERE C'
p1246
(dp1247
g3
g5
sg4
g5
sg6
g7
(g11
S'\xcb\xb8\xa8\x7f\xe8$\xc3?'
p1248
tp1249
Rp1250
sg17
I18834
sg18
I00
sg19
g5
sg20
S'jere.overdyke@enron.com'
p1251
sg22
I135836
sg23
F76.96984442969844
sg24
g5
sg25
g7
(g11
S'\xae5\xb5[\x9b\x9d\xc3?'
p1252
tp1253
Rp1254
sg26
g5
sg27
g5
sg28
g5
sg29
I176
sg30
g5
sg31
g5
sg32
I7307594
sg33
g5
sg34
I0
sg38
I0
sg39
g5
sg40
I2041016
sg41
I94941
sg42
g7
(g11
S'Ie=\x89^\xc5\xb5?'
p1255
tp1256
Rp1257
sg46
I249787
sg47
g7
(g11
S'\xe3\xd8kE\x03\xe0\x8a?'
p1258
tp1259
Rp1260
sg48
I5266578
ssS'PEREIRA PAULO V. FERRAZ'
p1261
(dp1262
g3
g5
sg4
g5
sg6
I0
sg17
I27942
sg18
I00
sg19
I-101250
sg20
g5
sg22
g5
sg23
I0
sg24
g5
sg25
I0
sg26
g5
sg27
g5
sg28
g5
sg29
g5
sg30
I101250
sg31
g5
sg32
g5
sg33
g5
sg34
I0
sg38
g7
(g11
S'\xaddF\x874\x15\xef?'
p1263
tp1264
Rp1265
sg39
g5
sg40
g5
sg41
g5
sg42
I0
sg46
I27942
sg47
I0
sg48
g5
ssS'STABLER FRANK'
p1266
(dp1267
g3
g5
sg4
g5
sg6
g7
(g11
S'\xc9\xa5\xb29\x8f(\x87?'
p1268
tp1269
Rp1270
sg17
I16514
sg18
I00
sg19
g5
sg20
S'frank.stabler@enron.com'
p1271
sg22
g5
sg23
F2.1366585665255404
sg24
g5
sg25
I0
sg26
g5
sg27
g5
sg28
g5
sg29
I356071
sg30
g5
sg31
I500000
sg32
I511734
sg33
g5
sg34
g7
(g11
S'\xc4\xf2\x90\x17O\xc3\xab?'
p1272
tp1273
Rp1274
sg38
I0
sg39
g5
sg40
I511734
sg41
I239502
sg42
g7
(g11
S'\xa5\xbe\xc0\x9f:\x8b\xcb?'
p1275
tp1276
Rp1277
sg46
I1112087
sg47
I0
sg48
g5
ssS'SKILLING JEFFREY K'
p1278
(dp1279
g3
I3627
sg4
g5
sg6
g7
(g11
S'3J\x0b\r\x1a\x04\xe1?'
p1280
tp1281
Rp1282
sg17
I29336
sg18
I01
sg19
g5
sg20
S'jeff.skilling@enron.com'
p1283
sg22
I1920000
sg23
F23.481200585282625
sg24
g5
sg25
g7
(g11
S'0\x82\xfc\xf9\xba\xee\xe1?'
p1284
tp1285
Rp1286
sg26
I2042
sg27
g5
sg28
I108
sg29
I22122
sg30
g5
sg31
I5600000
sg32
I26093672
sg33
I88
sg34
g7
(g11
S'-\xbd&\xc8\xb4P\xe6?'
p1287
tp1288
Rp1289
sg38
I0
sg39
I30
sg40
I6843672
sg41
I1111258
sg42
g7
(g11
S'\x00\x00\x00\x00\x00\x00\xf0?'
p1290
tp1291
Rp1292
sg46
I8682716
sg47
g7
(g11
S'$\xc3\x13]\x93U\xd7?'
p1293
tp1294
Rp1295
sg48
I19250000
ssS'BLAKE JR. NORMAN P'
p1296
(dp1297
g3
g5
sg4
g5
sg6
I0
sg17
I1279
sg18
I00
sg19
I-113784
sg20
g5
sg22
g5
sg23
I0
sg24
g5
sg25
I0
sg26
g5
sg27
g5
sg28
g5
sg29
g5
sg30
I113784
sg31
g5
sg32
g5
sg33
g5
sg34
I0
sg38
g7
(g11
S'\xfc\xd8\x96\xf1\xe5\xf7\xee?'
p1298
tp1299
Rp1300
sg39
g5
sg40
g5
sg41
g5
sg42
I0
sg46
I1279
sg47
I0
sg48
g5
ssS'SHERRICK JEFFREY B'
p1301
(dp1302
g3
I613
sg4
g5
sg6
g7
(g11
S'\x7f\x92\xc7\x0f\xf1\x8b\xa3?'
p1303
tp1304
Rp1305
sg17
g5
sg18
I00
sg19
g5
sg20
S'jeffrey.sherrick@enron.com'
p1306
sg22
g5
sg23
I0
sg24
g5
sg25
g7
(g11
S'\xb7]\xa8\x87T7\xa5?'
p1307
tp1308
Rp1309
sg26
I583
sg27
g5
sg28
I25
sg29
g5
sg30
g5
sg31
g5
sg32
I1832468
sg33
I39
sg34
I0
sg38
I0
sg39
I18
sg40
I405999
sg41
g5
sg42
I0
sg46
g5
sg47
I0
sg48
I1426469
ssS'PRENTICE JAMES'
p1310
(dp1311
g3
g5
sg4
I564348
sg6
g7
(g11
S'\x92\xd4\x1f\x90\x1b\xbb\x97?'
p1312
tp1313
Rp1314
sg17
g5
sg18
I00
sg19
g5
sg20
S'james.prentice@enron.com'
p1315
sg22
g5
sg23
I0
sg24
g5
sg25
g7
(g11
S'\x1cp\xe7\xf66S\x9a?'
p1316
tp1317
Rp1318
sg26
g5
sg27
g5
sg28
g5
sg29
g5
sg30
g5
sg31
g5
sg32
I1095040
sg33
g5
sg34
I0
sg38
I0
sg39
g5
sg40
I208809
sg41
g5
sg42
I0
sg46
I564348
sg47
I0
sg48
I886231
ssS'GRAY RODNEY'
p1319
(dp1320
g3
g5
sg4
I93585
sg6
I0
sg17
g5
sg18
I00
sg19
g5
sg20
g5
sg22
I365625
sg23
I0
sg24
g5
sg25
I0
sg26
g5
sg27
g5
sg28
g5
sg29
I680833
sg30
g5
sg31
g5
sg32
g5
sg33
g5
sg34
I0
sg38
I0
sg39
g5
sg40
g5
sg41
I6615
sg42
g7
(g11
S'M\x89\x0b\xd8C\xa2v?'
p1321
tp1322
Rp1323
sg46
I1146658
sg47
g7
(g11
S'v\x87i\xc4X\xe5\xad?'
p1324
tp1325
Rp1326
sg48
g5
ssS'PICKERING MARK R'
p1327
(dp1328
g3
I898
sg4
g5
sg6
g7
(g11
S'n&\x07\xdd\xc1KX?'
p1329
tp1330
Rp1331
sg17
I31653
sg18
I00
sg19
g5
sg20
S'mark.pickering@enron.com'
p1332
sg22
g5
sg23
F0.04396392875516956
sg24
g5
sg25
g7
(g11
S'\x0b\xc7\xeb+jWH?'
p1333
tp1334
Rp1335
sg26
I728
sg27
I400000
sg28
I67
sg29
g5
sg30
g5
sg31
I300000
sg32
I28798
sg33
I7
sg34
g7
(g11
S'V3\x89\xef*\xb3\x9d?'
p1336
tp1337
Rp1338
sg38
I0
sg39
I0
sg40
g5
sg41
I655037
sg42
g7
(g11
S'\xbbCQ\xca_\xdb\xe2?'
p1339
tp1340
Rp1341
sg46
I1386690
sg47
I0
sg48
I28798
ssS'NOLES JAMES L'
p1342
(dp1343
g3
g5
sg4
I774401
sg6
g7
(g11
S'&V\xed\xf3\xfb2\x81?'
p1344
tp1345
Rp1346
sg17
g5
sg18
I00
sg19
g5
sg20
g5
sg22
g5
sg23
I0
sg24
I-94556
sg25
I0
sg26
g5
sg27
g5
sg28
g5
sg29
g5
sg30
g5
sg31
g5
sg32
I368705
sg33
g5
sg34
I0
sg38
I0
sg39
g5
sg40
I463261
sg41
g5
sg42
I0
sg46
I774401
sg47
I0
sg48
g5
ssS'KEAN STEVEN J'
p1347
(dp1348
g3
I12754
sg4
g5
sg6
g7
(g11
S'0\x14@\x0e\xa4#\xc0?'
p1349
tp1350
Rp1351
sg17
I41953
sg18
I00
sg19
g5
sg20
S'steven.kean@enron.com'
p1352
sg22
I300000
sg23
F15.219054355514446
sg24
g5
sg25
g7
(g11
S'n\xba\x0b\x8f@\x18\xae?'
p1353
tp1354
Rp1355
sg26
I3639
sg27
g5
sg28
I6759
sg29
I1231
sg30
g5
sg31
I1000000
sg32
I6153642
sg33
I140
sg34
g7
(g11
S'\xc2\xe8\x87\x93\xcf\x05\xbe?'
p1356
tp1357
Rp1358
sg38
I0
sg39
I387
sg40
I4131594
sg41
I404338
sg42
g7
(g11
S'\x82\xb07L\xf1D\xd7?'
p1359
tp1360
Rp1361
sg46
I1747522
sg47
g7
(g11
S'\xe36\xe2\xc2\xdaF\xa7?'
p1362
tp1363
Rp1364
sg48
I2022048
ssS'FOWLER PEGGY'
p1365
(dp1366
g3
I517
sg4
g5
sg6
g7
(g11
S'\xb0\xa2tLY\x17\xa4?'
p1367
tp1368
Rp1369
sg17
g5
sg18
I00
sg19
g5
sg20
S'kulvinder.fowler@enron.com'
p1370
sg22
g5
sg23
I0
sg24
g5
sg25
g7
(g11
S'\x0e\xa4\x110{\xb2\xa3?'
p1371
tp1372
Rp1373
sg26
I10
sg27
g5
sg28
I36
sg29
g5
sg30
g5
sg31
g5
sg32
I1884748
sg33
I0
sg34
I0
sg38
I0
sg39
I0
sg40
I560170
sg41
g5
sg42
I0
sg46
g5
sg47
I0
sg48
I1324578
ssS'WASAFF GEORGE'
p1374
(dp1375
g3
I400
sg4
I831299
sg6
g7
(g11
S"\xb5\xd0'\xa7#\xe1\xa5?"
p1376
tp1377
Rp1378
sg17
g5
sg18
I00
sg19
I-583325
sg20
S'george.wasaff@enron.com'
p1379
sg22
I200000
sg23
F7.909456299327682
sg24
g5
sg25
g7
(g11
S'\xb2\x03\x1b3\x15\xd2\xa8?'
p1380
tp1381
Rp1382
sg26
I337
sg27
g5
sg28
I30
sg29
I1425
sg30
g5
sg31
I325000
sg32
I2056427
sg33
I22
sg34
g7
(g11
S'\xce$\xbe\xab\xccv\xa0?'
p1383
tp1384
Rp1385
sg38
g7
(g11
S'\xc8\xa7\xa9\xba\x04\xae\xea?'
p1386
tp1387
Rp1388
sg39
I7
sg40
I388167
sg41
I259996
sg42
g7
(g11
S'\xa2\xa4\x1e \xcd\xe7\xcd?'
p1389
tp1390
Rp1391
sg46
I1034395
sg47
g7
(g11
S'\x14/q\xd6\x8aa\x9a?'
p1392
tp1393
Rp1394
sg48
I1668260
ssS'WHITE JR THOMAS E'
p1395
(dp1396
g3
g5
sg4
g5
sg6
g7
(g11
S'\x0b\x0f\xf7\xda\x83\xc6\xd3?'
p1397
tp1398
Rp1399
sg17
I81353
sg18
I00
sg19
g5
sg20
S'thomas.white@enron.com'
p1400
sg22
g5
sg23
F47.69156618158801
sg24
g5
sg25
g7
(g11
S'\xb1W\x8e\xf0kI\xa3?'
p1401
tp1402
Rp1403
sg26
g5
sg27
g5
sg28
g5
sg29
I1085463
sg30
g5
sg31
I450000
sg32
I15144123
sg33
g5
sg34
g7
(g11
S'~\xdc\x9d\xaf\xe0\x88\xa8?'
p1404
tp1405
Rp1406
sg38
I0
sg39
g5
sg40
I13847074
sg41
I317543
sg42
g7
(g11
S'~\xd5\xd5\xc5\xb7D\xd2?'
p1407
tp1408
Rp1409
sg46
I1934359
sg47
I0
sg48
I1297049
ssS'CHRISTODOULOU DIOMEDES'
p1410
(dp1411
g3
g5
sg4
g5
sg6
g7
(g11
S'\x8b\xeb4\xddF\xe2\xbf?'
p1412
tp1413
Rp1414
sg17
g5
sg18
I00
sg19
g5
sg20
S'diomedes.christodoulou@enron.com'
p1415
sg22
g5
sg23
I0
sg24
g5
sg25
g7
(g11
S'UQ\xf3\x07\x96\x18\xc3?'
p1416
tp1417
Rp1418
sg26
g5
sg27
g5
sg28
g5
sg29
g5
sg30
g5
sg31
g5
sg32
I6077885
sg33
g5
sg34
I0
sg38
I0
sg39
g5
sg40
I950730
sg41
g5
sg42
I0
sg46
g5
sg47
I0
sg48
I5127155
ssS'ALLEN PHILLIP K'
p1419
(dp1420
g3
I2902
sg4
I2869717
sg6
g7
(g11
S'k\xe7AU{y\xa2?'
p1421
tp1422
Rp1423
sg17
I13868
sg18
I00
sg19
I-3081055
sg20
S'phillip.allen@enron.com'
p1424
sg22
I304805
sg23
F8.563991978411032
sg24
I-126027
sg25
g7
(g11
S'\xf3`Bo\xf3\xbb\xa9?'
p1425
tp1426
Rp1427
sg26
I1407
sg27
g5
sg28
I2195
sg29
I152
sg30
g5
sg31
I4175000
sg32
I1729541
sg33
I47
sg34
g7
(g11
S'\x80\xbd\xfd\x1e\xa0\x90\xe0?'
p1428
tp1429
Rp1430
sg38
g7
(g11
S'\x18\xc9\xeb)\xa7\xee\xbe?'
p1431
tp1432
Rp1433
sg39
I65
sg40
I126027
sg41
I201955
sg42
g7
(g11
S'\x04\x93\x97\x05\x987\xc7?'
p1434
tp1435
Rp1436
sg46
I4484442
sg47
g7
(g11
S'\x92e\xces\xec\xc2\xa7?'
p1437
tp1438
Rp1439
sg48
I1729541
ssS'SHARP VICTORIA T'
p1440
(dp1441
g3
I3136
sg4
I187469
sg6
g7
(g11
S'\xae\xcfg\x13\xdbl\x86?'
p1442
tp1443
Rp1444
sg17
I116337
sg18
I00
sg19
g5
sg20
S'vicki.sharp@enron.com'
p1445
sg22
I422158
sg23
F1.9913115665777406
sg24
g5
sg25
g7
(g11
S'\xaefE\xe5\x83\x90\x80?'
p1446
tp1447
Rp1448
sg26
I2477
sg27
g5
sg28
I136
sg29
I2401
sg30
g5
sg31
I600000
sg32
I494136
sg33
I24
sg34
g7
(g11
S'\xa9\x8f\xbb\xf3\x15\x1c\xb1?'
p1449
tp1450
Rp1451
sg38
I0
sg39
I6
sg40
I213063
sg41
I248146
sg42
g7
(g11
S'H=\x89\x08:\x8a\xcc?'
p1452
tp1453
Rp1454
sg46
I1576511
sg47
g7
(g11
S'\xba\x99U\xb8\x89\xcc\xb1?'
p1455
tp1456
Rp1457
sg48
I281073
ssS'JAEDICKE ROBERT'
p1458
(dp1459
g3
g5
sg4
g5
sg6
g7
(g11
S'\xa3\x08\xb0:o\xd3\x83?'
p1460
tp1461
Rp1462
sg17
g5
sg18
I00
sg19
I-25000
sg20
g5
sg22
g5
sg23
I0
sg24
I-44093
sg25
g7
(g11
S'g\xd2T\xce\xa4\x8c\x89?'
p1463
tp1464
Rp1465
sg26
g5
sg27
g5
sg28
g5
sg29
g5
sg30
I108750
sg31
g5
sg32
I431750
sg33
g5
sg34
I0
sg38
g7
(g11
S'\xeeMb&~\xc7\xef?'
p1466
tp1467
Rp1468
sg39
g5
sg40
I44093
sg41
g5
sg42
I0
sg46
I83750
sg47
I0
sg48
I431750
ssS'WINOKUR JR. HERBERT S'
p1469
(dp1470
g3
g5
sg4
g5
sg6
I0
sg17
I1413
sg18
I00
sg19
I-25000
sg20
g5
sg22
g5
sg23
I0
sg24
g5
sg25
I0
sg26
g5
sg27
g5
sg28
g5
sg29
g5
sg30
I108579
sg31
g5
sg32
g5
sg33
g5
sg34
I0
sg38
g7
(g11
S'\xeeMb&~\xc7\xef?'
p1471
tp1472
Rp1473
sg39
g5
sg40
g5
sg41
g5
sg42
I0
sg46
I84992
sg47
I0
sg48
g5
ssS'BROWN MICHAEL'
p1474
(dp1475
g3
I1486
sg4
g5
sg6
I0
sg17
I49288
sg18
I00
sg19
g5
sg20
S'michael.brown@enron.com'
p1476
sg22
g5
sg23
I0
sg24
g5
sg25
I0
sg26
I761
sg27
g5
sg28
I41
sg29
g5
sg30
g5
sg31
g5
sg32
g5
sg33
I13
sg34
I0
sg38
I0
sg39
I1
sg40
g5
sg41
g5
sg42
I0
sg46
I49288
sg47
I0
sg48
g5
ssS'BADUM JAMES P'
p1477
(dp1478
g3
g5
sg4
I178980
sg6
g7
(g11
S'o0\x8eRv(y?'
p1479
tp1480
Rp1481
sg17
I3486
sg18
I00
sg19
g5
sg20
g5
sg22
g5
sg23
I0
sg24
g5
sg25
g7
(g11
S'\x9bA\x1d\xd9\x02[~?'
p1482
tp1483
Rp1484
sg26
g5
sg27
g5
sg28
g5
sg29
g5
sg30
g5
sg31
g5
sg32
I257817
sg33
g5
sg34
I0
sg38
I0
sg39
g5
sg40
g5
sg41
g5
sg42
I0
sg46
I182466
sg47
I0
sg48
I257817
ssS'HUGHES JAMES A'
p1485
(dp1486
g3
I719
sg4
g5
sg6
g7
(g11
S'D\x0e;&\xa87\x98?'
p1487
tp1488
Rp1489
sg17
g5
sg18
I00
sg19
g5
sg20
S'james.hughes@enron.com'
p1490
sg22
g5
sg23
I0
sg24
g5
sg25
g7
(g11
S'\x85\xc6}\xbbPi\x96?'
p1491
tp1492
Rp1493
sg26
I589
sg27
g5
sg28
I34
sg29
g5
sg30
g5
sg31
g5
sg32
I1118394
sg33
I35
sg34
I0
sg38
I0
sg39
I5
sg40
I363428
sg41
g5
sg42
I0
sg46
g5
sg47
I0
sg48
I754966
ssS'REYNOLDS LAWRENCE'
p1494
(dp1495
g3
g5
sg4
I51365
sg6
g7
(g11
S'\xf6\xd8\xd29\xba7\xb6?'
p1496
tp1497
Rp1498
sg17
I8409
sg18
I00
sg19
I-200000
sg20
g5
sg22
I156250
sg23
F55.26107671566382
sg24
I-140264
sg25
g7
(g11
S'N\x08Jb\xf7\xfc\xbe?'
p1499
tp1500
Rp1501
sg26
g5
sg27
g5
sg28
g5
sg29
I202052
sg30
g5
sg31
I100000
sg32
I4221891
sg33
g5
sg34
g7
(g11
S'\x08\t\x84\x7f\xbd\xfdn?'
p1502
tp1503
Rp1504
sg38
g7
(g11
S'\x12\xd6.\xe3N.\xee?'
p1505
tp1506
Rp1507
sg39
g5
sg40
I201483
sg41
I76399
sg42
g7
(g11
S'h\xbbt\x81d\x7f\xb1?'
p1508
tp1509
Rp1510
sg46
I394475
sg47
g7
(g11
S'\xa6\xc3\xbc)8\x8e\x91?'
p1511
tp1512
Rp1513
sg48
I4160672
ssS'DIMICHELE RICHARD G'
p1514
(dp1515
g3
g5
sg4
g5
sg6
g7
(g11
S'\xaaH|MV\xc6\xc5?'
p1516
tp1517
Rp1518
sg17
I35812
sg18
I00
sg19
g5
sg20
S'richard.dimichele@enron.com'
p1519
sg22
I694862
sg23
F31.652061737978904
sg24
g5
sg25
g7
(g11
S'\xe2O\x86Mv\x84\xce?'
p1520
tp1521
Rp1522
sg26
g5
sg27
g5
sg28
g5
sg29
I374689
sg30
g5
sg31
I1000000
sg32
I8317782
sg33
g5
sg34
g7
(g11
S'\xc2\xe8\x87\x93\xcf\x05\xbe?'
p1523
tp1524
Rp1525
sg38
I0
sg39
g5
sg40
I126027
sg41
I262788
sg42
g7
(g11
S'!\x8a\xb7H*:\xce?'
p1526
tp1527
Rp1528
sg46
I2368151
sg47
g7
(g11
S'f\x87\xfa\xa1B\x8d\xbf?'
p1529
tp1530
Rp1531
sg48
I8191755
ssS'BHATNAGAR SANJAY'
p1532
(dp1533
g3
I523
sg4
g5
sg6
I0
sg17
g5
sg18
I00
sg19
g5
sg20
S'sanjay.bhatnagar@enron.com'
p1534
sg22
g5
sg23
I0
sg24
I15456290
sg25
g7
(g11
S'\x97\xafE\x02\x85c\xb3?'
p1535
tp1536
Rp1537
sg26
I463
sg27
g5
sg28
I29
sg29
I137864
sg30
I137864
sg31
g5
sS'total_stock_value'
p1538
S'NaN'
p1539
sg33
I0
sg34
I0
sg38
I0
sg39
I1
sg40
I-2604490
sg41
g5
sg42
I0
sg46
I15456290
sg47
I0
sg48
I2604490
ssS'CARTER REBECCA C'
p1540
(dp1541
g3
I312
sg4
g5
sg6
I0
sg17
g5
sg18
I00
sg19
I-159792
sg20
S'rebecca.carter@enron.com'
p1542
sg22
I75000
sg23
I0
sg24
I-307301
sg25
I0
sg26
I196
sg27
g5
sg28
I15
sg29
I540
sg30
g5
sg31
I300000
sg32
g5
sg33
I29
sg34
g7
(g11
S'V3\x89\xef*\xb3\x9d?'
p1543
tp1544
Rp1545
sg38
g7
(g11
S'5\x04\x9a\x89R\x8c\xee?'
p1546
tp1547
Rp1548
sg39
I7
sg40
I307301
sg41
I261809
sg42
g7
(g11
S'\x1b\xee\x8c\xe2H\x1d\xce?'
p1549
tp1550
Rp1551
sg46
I477557
sg47
g7
(g11
S'`\x0b\x92\xb4W\xa5R?'
p1552
tp1553
Rp1554
sg48
g5
ssS'BUCHANAN HAROLD G'
p1555
(dp1556
g3
I1088
sg4
g5
sg6
g7
(g11
S'\x96\xa9\xaaL\x9b\r\x96?'
p1557
tp1558
Rp1559
sg17
I600
sg18
I00
sg19
g5
sg20
S'john.buchanan@enron.com'
p1560
sg22
I304805
sg23
F4.090465572924437
sg24
g5
sg25
g7
(g11
S'\xa2\x1b$\xd4f\x83\x98?'
p1561
tp1562
Rp1563
sg26
I23
sg27
g5
sg28
I125
sg29
I1215
sg30
g5
sg31
I500000
sg32
I1014505
sg33
I0
sg34
g7
(g11
S'\xc4\xf2\x90\x17O\xc3\xab?'
p1564
tp1565
Rp1566
sg38
I0
sg39
I0
sg40
I189041
sg41
I248017
sg42
g7
(g11
S'\xb6\xb6\x96\xd3k\x86\xcc?'
p1567
tp1568
Rp1569
sg46
I1054637
sg47
g7
(g11
S'\x92e\xces\xec\xc2\xa7?'
p1570
tp1571
Rp1572
sg48
I825464
ssS'YEAP SOON'
p1573
(dp1574
g3
g5
sg4
g5
sg6
g7
(g11
S';XP!\x99\xbcs?'
p1575
tp1576
Rp1577
sg17
I55097
sg18
I00
sg19
g5
sg20
g5
sg22
g5
sg23
I0
sg24
g5
sg25
g7
(g11
S'\xe2\x990\xc3\xb8\x98v?'
p1578
tp1579
Rp1580
sg26
g5
sg27
g5
sg28
g5
sg29
g5
sg30
g5
sg31
g5
sg32
I192758
sg33
g5
sg34
I0
sg38
I0
sg39
g5
sg40
g5
sg41
g5
sg42
I0
sg46
I55097
sg47
I0
sg48
I192758
ssS'MURRAY JULIA H'
p1581
(dp1582
g3
I2192
sg4
g5
sg6
g7
(g11
S'l\x02_\xbf\xf0\xba\x8a?'
p1583
tp1584
Rp1585
sg17
I57580
sg18
I00
sg19
g5
sg20
S'julia.murray@enron.com'
p1586
sg22
I125000
sg23
F2.605768392037822
sg24
g5
sg25
g7
(g11
S'\xe8\xe5\xd9|D\xaf\x87?'
p1587
tp1588
Rp1589
sg26
I395
sg27
g5
sg28
I45
sg29
I330
sg30
g5
sg31
I400000
sg32
I597461
sg33
I11
sg34
g7
(g11
S'7\xc6\xaaGrN\xa5?'
p1590
tp1591
Rp1592
sg38
I0
sg39
I2
sg40
I196983
sg41
I229284
sg42
g7
(g11
S'+\xc8\x8ca\xcc]\xca?'
p1593
tp1594
Rp1595
sg46
I812194
sg47
g7
(g11
S'\x1d\x80\xe5\xa5\xd5\x80\x86?'
p1596
tp1597
Rp1598
sg48
I400478
ssS'GARLAND C KEVIN'
p1599
(dp1600
g3
I209
sg4
g5
sg6
g7
(g11
S'\x90\xd1z\x81l\x96\x93?'
p1601
tp1602
Rp1603
sg17
I48405
sg18
I00
sg19
g5
sg20
S'kevin.garland@enron.com'
p1604
sg22
I375304
sg23
F3.8636277409397013
sg24
g5
sg25
g7
(g11
S'\xe5\x89\xb0\xe5*\xdf\x92?'
p1605
tp1606
Rp1607
sg26
I178
sg27
g5
sg28
I44
sg29
I60814
sg30
g5
sg31
I850000
sg32
I896153
sg33
I10
sg34
g7
(g11
S'YG\x9b\xf7).\xb9?'
p1608
tp1609
Rp1610
sg38
I0
sg39
I27
sg40
I259907
sg41
I231946
sg42
g7
(g11
S'\x98\xe0\xe3\xc7S\xac\xca?'
p1611
tp1612
Rp1613
sg46
I1566469
sg47
g7
(g11
S'\xfcy\xa7?D\xdf\xae?'
p1614
tp1615
Rp1616
sg48
I636246
ssS'DODSON KEITH'
p1617
(dp1618
g3
I176
sg4
g5
sg6
I0
sg17
I28164
sg18
I00
sg19
g5
sg20
S'keith.dodson@enron.com'
p1619
sg22
g5
sg23
I0
sg24
g5
sg25
I0
sg26
I114
sg27
g5
sg28
I14
sg29
I774
sg30
g5
sg31
I70000
sg32
g5
sg33
I10
sg34
g7
(g11
S'\x00\x00\x00\x00\x00\x00\x00\x00'
p1620
tp1621
Rp1622
sg38
I0
sg39
I3
sg40
g5
sg41
I221003
sg42
g7
(g11
S';A-X\x82i\xc9?'
p1623
tp1624
Rp1625
sg46
I319941
sg47
I0
sg48
g5
ssS'YEAGER F SCOTT'
p1626
(dp1627
g3
g5
sg4
g5
sg6
g7
(g11
S'\xb9\x13\xbeQ7\x10\xcf?'
p1628
tp1629
Rp1630
sg17
I53947
sg18
I01
sg19
g5
sg20
S'scott.yeager@enron.com'
p1631
sg22
g5
sg23
F75.02861688225602
sg24
g5
sg25
g7
(g11
S"'P\x85Y\xe5\xf3\xce?"
p1632
tp1633
Rp1634
sg26
g5
sg27
g5
sg28
g5
sg29
I147950
sg30
g5
sg31
g5
sg32
I11884758
sg33
g5
sg34
I0
sg38
I0
sg39
g5
sg40
I3576206
sg41
I158403
sg42
g7
(g11
S'\xab\xab\xdd\xb6\xcf2\xc2?'
p1635
tp1636
Rp1637
sg46
I360300
sg47
I0
sg48
I8308552
ssS'HIRKO JOSEPH'
p1638
(dp1639
g3
g5
sg4
I10259
sg6
g7
(g11
S'2{S\xa3\xcc\x0e\xe4?'
p1640
tp1641
Rp1642
sg17
I77978
sg18
I01
sg19
g5
sg20
S'joe.hirko@enron.com'
p1643
sg22
g5
sg23
I0
sg24
g5
sg25
g7
(g11
S'\xee\x8b\x90W\x8b\xa9\xec?'
p1644
tp1645
Rp1646
sg26
g5
sg27
g5
sg28
g5
sg29
I2856
sg30
g5
sg31
g5
sg32
I30766064
sg33
g5
sg34
I0
sg38
I0
sg39
g5
sg40
g5
sg41
g5
sg42
I0
sg46
I91093
sg47
I0
sg48
I30766064
ssS'DIETRICH JANET R'
p1647
(dp1648
g3
I2572
sg4
g5
sg6
g7
(g11
S'\xc2\xcdl\xfb\xeb\xe2\xa3?'
p1649
tp1650
Rp1651
sg17
I3475
sg18
I00
sg19
g5
sg20
S'janet.dietrich@enron.com'
p1652
sg22
I556416
sg23
F7.457365053978409
sg24
g5
sg25
g7
(g11
S'rO?A\xd6\x0e\xa7?'
p1653
tp1654
Rp1655
sg26
I1902
sg27
g5
sg28
I63
sg29
I473
sg30
g5
sg31
I600000
sg32
I1865087
sg33
I305
sg34
g7
(g11
S'\xa9\x8f\xbb\xf3\x15\x1c\xb1?'
p1656
tp1657
Rp1658
sg38
I0
sg39
I14
sg40
I315068
sg41
I250100
sg42
g7
(g11
S'T[\xa1\x9f\xde\xc3\xcc?'
p1659
tp1660
Rp1661
sg46
I1410464
sg47
g7
(g11
S'>\xe0\xdf]\xdd\x91\xb8?'
p1662
tp1663
Rp1664
sg48
I1550019
ssS'DERRICK JR. JAMES V'
p1665
(dp1666
g3
I2181
sg4
g5
sg6
g7
(g11
S'\x14\xc5\x83s\x13\x1d\xc7?'
p1667
tp1668
Rp1669
sg17
I51124
sg18
I00
sg19
I-1284000
sg20
S'james.derrick@enron.com'
p1670
sg22
I484000
sg23
F17.9373709063214
sg24
I-1787380
sg25
g7
(g11
S'\xc8\x92;\xbf\x9cs\xd0?'
p1671
tp1672
Rp1673
sg26
I1401
sg27
g5
sg28
I909
sg29
I7482
sg30
g5
sg31
I800000
sg32
I8831913
sg33
I64
sg34
g7
(g11
S'5\xbc\xa1\xc3\xf2\x90\xb7?'
p1674
tp1675
Rp1676
sg38
g7
(g11
S'\xc0\x12x\xa3\xb3G\xe4?'
p1677
tp1678
Rp1679
sg39
I20
sg40
I1787380
sg41
I492375
sg42
g7
(g11
S'[\x90\xe7\x9b|W\xdc?'
p1680
tp1681
Rp1682
sg46
I550981
sg47
g7
(g11
S'\xb9\xf5\xd9\xa7\xf1\xea\xb4?'
p1683
tp1684
Rp1685
sg48
I8831913
ssS'FREVERT MARK A'
p1686
(dp1687
g3
I3275
sg4
I6426990
sg6
g7
(g11
S'e6\xf7\x1c\x8b\x18\xd3?'
p1688
tp1689
Rp1690
sg17
I86987
sg18
I00
sg19
I-3367011
sg20
S'mark.frevert@enron.com'
p1691
sg22
I1617011
sg23
F13.782396044232806
sg24
g5
sg25
g7
(g11
S'\xdb\xa6\x06\x81\xa4o\xd3?'
p1692
tp1693
Rp1694
sg26
I2979
sg27
I2000000
sg28
I21
sg29
I7427621
sg30
g5
sg31
I2000000
sg32
I14622185
sg33
I242
sg34
g7
(g11
S"\xc1c\x83\xd1\x0f'\xcf?"
p1695
tp1696
Rp1697
sg38
g7
(g11
S'`\xb8g\xdb[\x13\xa4?'
p1698
tp1699
Rp1700
sg39
I6
sg40
I4188667
sg41
I1060932
sg42
g7
(g11
S'\x82\xa5d\xa0\xd8\x8c\xee?'
p1701
tp1702
Rp1703
sg46
I17252530
sg47
g7
(g11
S'\xfdu)\xa6\xa5\x83\xd3?'
p1704
tp1705
Rp1706
sg48
I10433518
ssS'PAI LOU L'
p1707
(dp1708
g3
g5
sg4
g5
sg6
g7
(g11
S'\x8b;B\x07\xa8\x11\xdf?'
p1709
tp1710
Rp1711
sg17
I32047
sg18
I00
sg19
g5
sg20
S'lou.pai@enron.com'
p1712
sg22
g5
sg23
F90.95013345858202
sg24
g5
sg25
g7
(g11
S'\x8a\x12\x07\xeb\xc2\x9f\xdc?'
p1713
tp1714
Rp1715
sg26
g5
sg27
g5
sg28
g5
sg29
I1829457
sg30
g5
sg31
I1000000
sg32
I23817930
sg33
g5
sg34
g7
(g11
S'\xc2\xe8\x87\x93\xcf\x05\xbe?'
p1716
tp1717
Rp1718
sg38
I0
sg39
g5
sg40
I8453763
sg41
I261879
sg42
g7
(g11
S'%5:\x86Y\x1f\xce?'
p1719
tp1720
Rp1721
sg46
I3123383
sg47
I0
sg48
I15364167
ssS'BAY FRANKLIN R'
p1722
(dp1723
g3
g5
sg4
I260455
sg6
g7
(g11
S'w\x03Ec\xb2\xd9a?'
p1724
tp1725
Rp1726
sg17
I129142
sg18
I00
sg19
I-201641
sg20
S'frank.bay@enron.com'
p1727
sg22
g5
sg23
F0.26291875112132884
sg24
I-82782
sg25
I0
sg26
g5
sg27
g5
sg28
g5
sg29
I69
sg30
g5
sg31
I400000
sg32
I63014
sg33
g5
sg34
g7
(g11
S'7\xc6\xaaGrN\xa5?'
p1728
tp1729
Rp1730
sg38
g7
(g11
S"'|\xb0\x9ex*\xee?"
p1731
tp1732
Rp1733
sg39
g5
sg40
I145796
sg41
I239671
sg42
g7
(g11
S'=I\x16\xe96\x90\xcb?'
p1734
tp1735
Rp1736
sg46
I827696
sg47
I0
sg48
g5
ssS'HAYSLETT RODERICK J'
p1737
(dp1738
g3
I2649
sg4
g5
sg6
g7
(g11
S'IS\xaeA\xe1G\x80?'
p1739
tp1740
Rp1741
sg17
g5
sg18
I00
sg19
g5
sg20
S'rod.hayslett@enron.com'
p1742
sg22
g5
sg23
I0
sg24
g5
sg25
I0
sg26
I571
sg27
g5
sg28
I1061
sg29
g5
sg30
g5
sg31
g5
sg32
I346663
sg33
I35
sg34
I0
sg38
I0
sg39
I38
sg40
I346663
sg41
g5
sg42
I0
sg46
g5
sg47
I0
sg48
g5
ssS'FUGH JOHN L'
p1743
(dp1744
g3
g5
sg4
I50591
sg6
g7
(g11
S'\x88\x05\xf1p,_r?'
p1745
tp1746
Rp1747
sg17
g5
sg18
I00
sg19
g5
sg20
g5
sg22
g5
sg23
I0
sg24
g5
sg25
g7
(g11
S'Z\xacuw\xa1\xa4t?'
p1748
tp1749
Rp1750
sg26
g5
sg27
g5
sg28
g5
sg29
g5
sg30
g5
sg31
g5
sg32
I176378
sg33
g5
sg34
I0
sg38
I0
sg39
g5
sg40
g5
sg41
g5
sg42
I0
sg46
I50591
sg47
I0
sg48
I176378
ssS'FALLON JAMES B'
p1751
(dp1752
g3
I1755
sg4
g5
sg6
g7
(g11
S'D\xec\xa27\x08\xc1\xa8?'
p1753
tp1754
Rp1755
sg17
I95924
sg18
I00
sg19
g5
sg20
S'jim.fallon@enron.com'
p1756
sg22
I374347
sg23
F7.657553810393056
sg24
g5
sg25
g7
(g11
S'\xf4\x98\x03y\x93\xef\x9b?'
p1757
tp1758
Rp1759
sg26
I1604
sg27
g5
sg28
I75
sg29
I401481
sg30
g5
sg31
I2500000
sg32
I2332399
sg33
I42
sg34
g7
(g11
S'\xb8\x8d\xb1\xea\x91\x9c\xd3?'
p1760
tp1761
Rp1762
sg38
I0
sg39
I37
sg40
I1392142
sg41
I304588
sg42
g7
(g11
S'Ezs\xc0\xa1\x85\xd1?'
p1763
tp1764
Rp1765
sg46
I3676340
sg47
g7
(g11
S'\n\xa8\xd8Y\x8e\xc6\xae?'
p1766
tp1767
Rp1768
sg48
I940257
ssS'KOENIG MARK E'
p1769
(dp1770
g3
I2374
sg4
g5
sg6
g7
(g11
S'2\xa7f%\x7fu\xa4?'
p1771
tp1772
Rp1773
sg17
I127017
sg18
I01
sg19
g5
sg20
S'mark.koenig@enron.com'
p1774
sg22
I300000
sg23
F6.194804901498971
sg24
g5
sg25
g7
(g11
S'^\x04\x97\xcd\x0e\xee\x93?'
p1775
tp1776
Rp1777
sg26
I2271
sg27
g5
sg28
I61
sg29
I150458
sg30
g5
sg31
I700000
sg32
I1920055
sg33
I53
sg34
g7
(g11
S'\xef\xa5\xae[\x84V\xb4?'
p1778
tp1779
Rp1780
sg38
I0
sg39
I15
sg40
I1248318
sg41
I309946
sg42
g7
(g11
S'4A\x0e\x89\xa9\xd4\xd1?'
p1781
tp1782
Rp1783
sg46
I1587421
sg47
g7
(g11
S'\xe36\xe2\xc2\xdaF\xa7?'
p1784
tp1785
Rp1786
sg48
I671737
ssS'IZZO LAWRENCE L'
p1787
(dp1788
g3
I496
sg4
g5
sg6
g7
(g11
S'\xc0\xc0\xc9-k\x8a\xbe?'
p1789
tp1790
Rp1791
sg17
I28093
sg18
I00
sg19
g5
sg20
S'larry.izzo@enron.com'
p1792
sg22
I312500
sg23
F68.25034594366396
sg24
g5
sg25
g7
(g11
S'R~:\xd5:\x1d\xb0?'
p1793
tp1794
Rp1795
sg26
I437
sg27
g5
sg28
I19
sg29
I1553729
sg30
g5
sg31
g5
sg32
I5819980
sg33
I28
sg34
I0
sg38
I0
sg39
I5
sg40
I3654808
sg41
I85274
sg42
g7
(g11
S'\xec\xf3\x16X\x04\x8b\xb3?'
p1796
tp1797
Rp1798
sg46
I1979596
sg47
g7
(g11
S'\xcej\xd7m\x9d\x89\xa8?'
p1799
tp1800
Rp1801
sg48
I2165172
ssS'TILNEY ELIZABETH A'
p1802
(dp1803
g3
I460
sg4
g5
sg6
g7
(g11
S'\xe1y\x899o@\x99?'
p1804
tp1805
Rp1806
sg17
g5
sg18
I00
sg19
I-575000
sg20
S'elizabeth.tilney@enron.com'
p1807
sg22
I275000
sg23
F4.7224526760950605
sg24
g5
sg25
g7
(g11
S'vl\x11\xa0\xba\x87\x91?'
p1808
tp1809
Rp1810
sg26
I379
sg27
g5
sg28
I19
sg29
I152055
sg30
g5
sg31
I300000
sg32
I1168042
sg33
I10
sg34
g7
(g11
S'V3\x89\xef*\xb3\x9d?'
p1811
tp1812
Rp1813
sg38
g7
(g11
S'\x86gw\xe5{\xc1\xea?'
p1814
tp1815
Rp1816
sg39
I11
sg40
I576792
sg41
I247338
sg42
g7
(g11
S'\xd9\xb8R\x06dr\xcc?'
p1817
tp1818
Rp1819
sg46
I399393
sg47
g7
(g11
S'\r\xcf\xf7lU\xc1\xa4?'
p1820
tp1821
Rp1822
sg48
I591250
ssS'MARTIN AMANDA K'
p1823
(dp1824
g3
I1522
sg4
I85430
sg6
g7
(g11
S'k\xcf\x13\xf7%\x06\xa6?'
p1825
tp1826
Rp1827
sg17
I8211
sg18
I00
sg19
g5
sg20
S'a..martin@enron.com'
p1828
sg22
I5145434
sg23
F5.923842660814279
sg24
g5
sg25
g7
(g11
S'\xb5>u\x99k\xd0\xae?'
p1829
tp1830
Rp1831
sg26
I477
sg27
g5
sg28
I230
sg29
I2818454
sg30
g5
sg31
g5
sg32
I2070306
sg33
I8
sg34
I0
sg38
I0
sg39
I0
sg40
g5
sg41
I349487
sg42
g7
(g11
S'\x0eh\xe0+\xe4\x1b\xd4?'
p1832
tp1833
Rp1834
sg46
I8407016
sg47
g7
(g11
S'\x00\x00\x00\x00\x00\x00\xf0?'
p1835
tp1836
Rp1837
sg48
I2070306
ssS'BUY RICHARD B'
p1838
(dp1839
g3
I3523
sg4
I649584
sg6
g7
(g11
S'\xe78\xa6>6+\xb2?'
p1840
tp1841
Rp1842
sg17
g5
sg18
I00
sg19
I-694862
sg20
S'rick.buy@enron.com'
p1843
sg22
I769862
sg23
F10.420546610759168
sg24
g5
sg25
g7
(g11
S'\x17\xa6\x18s\xd4\xed\xb2?'
p1844
tp1845
Rp1846
sg26
I2333
sg27
g5
sg28
I1053
sg29
I400572
sg30
g5
sg31
I900000
sg32
I3444470
sg33
I156
sg34
g7
(g11
S'|\xd2\x94+a\xcb\xba?'
p1847
tp1848
Rp1849
sg38
g7
(g11
S'\xc7\xb7$\x109\xa9\xe9?'
p1850
tp1851
Rp1852
sg39
I71
sg40
I901657
sg41
I330546
sg42
g7
(g11
S'\xba\xcc\xa6\n\x83\x04\xd3?'
p1853
tp1854
Rp1855
sg46
I2355702
sg47
g7
(g11
S'\x94\x11mQ\xc5\xaa\xc1?'
p1856
tp1857
Rp1858
sg48
I2542813
ssS'CAUSEY RICHARD A'
p1859
(dp1860
g3
I1892
sg4
g5
sg6
g7
(g11
S'\x9d\xc7\x1d\x0fs\x85\xaa?'
p1861
tp1862
Rp1863
sg17
I30674
sg18
I01
sg19
I-235000
sg20
S'richard.causey@enron.com'
p1864
sg22
I350000
sg23
F6.026322951715965
sg24
g5
sg25
I0
sg26
I1585
sg27
g5
sg28
I49
sg29
I307895
sg30
g5
sg31
I1000000
sg32
I2502063
sg33
I58
sg34
g7
(g11
S'\xc2\xe8\x87\x93\xcf\x05\xbe?'
p1865
tp1866
Rp1867
sg38
g7
(g11
S'M\xf1\x8a\xa2x\xdc\xed?'
p1868
tp1869
Rp1870
sg39
I12
sg40
I2502063
sg41
I415189
sg42
g7
(g11
S'*U\xd4\x9f\xfe\xe4\xd7?'
p1871
tp1872
Rp1873
sg46
I1868758
sg47
g7
(g11
S'\x90\x06\xb7n\xe5Q\xac?'
p1874
tp1875
Rp1876
sg48
g5
ssS'TAYLOR MITCHELL S'
p1877
(dp1878
g3
I533
sg4
I227449
sg6
g7
(g11
S'6\x83\x03\x01\xf7\xbb\xb3?'
p1879
tp1880
Rp1881
sg17
g5
sg18
I00
sg19
g5
sg20
S'mitchell.taylor@enron.com'
p1882
sg22
g5
sg23
F14.120853348616588
sg24
g5
sg25
g7
(g11
S'h?H$\x12\xb0\xb7?'
p1883
tp1884
Rp1885
sg26
I300
sg27
g5
sg28
I29
sg29
g5
sg30
g5
sg31
I600000
sg32
I3745048
sg33
I0
sg34
g7
(g11
S'\xa9\x8f\xbb\xf3\x15\x1c\xb1?'
p1886
tp1887
Rp1888
sg38
I0
sg39
I0
sg40
I563798
sg41
I265214
sg42
g7
(g11
S'n\xa4\xf9i\xbb\x81\xce?'
p1889
tp1890
Rp1891
sg46
I1092663
sg47
I0
sg48
I3181250
ssS'DONAHUE JR JEFFREY M'
p1892
(dp1893
g3
I865
sg4
g5
sg6
g7
(g11
S'V\x93\x11\xbf*p\x97?'
p1894
tp1895
Rp1896
sg17
I96268
sg18
I00
sg19
I-300000
sg20
S'jeff.donahue@enron.com'
p1897
sg22
g5
sg23
F3.8800578605245493
sg24
g5
sg25
g7
(g11
S'\x8a\x9b\x06b\xec\xbc\x96?'
p1898
tp1899
Rp1900
sg26
I772
sg27
g5
sg28
I22
sg29
I891
sg30
g5
sg31
I800000
sg32
I1080988
sg33
I188
sg34
g7
(g11
S'5\xbc\xa1\xc3\xf2\x90\xb7?'
p1901
tp1902
Rp1903
sg38
g7
(g11
S'\xba\xda\xec\x05}D\xed?'
p1904
tp1905
Rp1906
sg39
I11
sg40
I315068
sg41
I278601
sg42
g7
(g11
S'\x8d\xa9B\xf5R\x06\xd0?'
p1907
tp1908
Rp1909
sg46
I875760
sg47
I0
sg48
I765920
ssS'GLISAN JR BEN F'
p1910
(dp1911
g3
I873
sg4
g5
sg6
g7
(g11
S'\xe7L*\xd76#\x91?'
p1912
tp1913
Rp1914
sg17
I125978
sg18
I01
sg19
g5
sg20
S'ben.glisan@enron.com'
p1915
sg22
I71023
sg23
F2.8313337576143285
sg24
g5
sg25
g7
(g11
S'\xb5\xf3\x84\xd3\xd6\xbe\x86?'
p1916
tp1917
Rp1918
sg26
I874
sg27
g5
sg28
I16
sg29
I200308
sg30
g5
sg31
I600000
sg32
I778546
sg33
I52
sg34
g7
(g11
S'\xa9\x8f\xbb\xf3\x15\x1c\xb1?'
p1919
tp1920
Rp1921
sg38
I0
sg39
I6
sg40
I393818
sg41
I274975
sg42
g7
(g11
S'*\xc0\xa8e\xae\xa1\xcf?'
p1922
tp1923
Rp1924
sg46
I1272284
sg47
g7
(g11
S' \xc5\xaf\xbd\x1e=7?'
p1925
tp1926
Rp1927
sg48
I384728
ss.